
firmware.elf:     file format elf32-littlearm


Disassembly of section .text:

08000000 <vector_table-0x8000>:
 8000000:	20018000 	andcs	r8, r1, r0
 8000004:	080008bd 	stmdaeq	r0, {r0, r2, r3, r4, r5, r7, fp}
 8000008:	080008bb 	stmdaeq	r0, {r0, r1, r3, r4, r5, r7, fp}
 800000c:	080008b9 	stmdaeq	r0, {r0, r3, r4, r5, r7, fp}
 8000010:	080008b9 	stmdaeq	r0, {r0, r3, r4, r5, r7, fp}
 8000014:	080008b9 	stmdaeq	r0, {r0, r3, r4, r5, r7, fp}
 8000018:	080008b9 	stmdaeq	r0, {r0, r3, r4, r5, r7, fp}
	...
 800002c:	080008bb 	stmdaeq	r0, {r0, r1, r3, r4, r5, r7, fp}
 8000030:	080008bb 	stmdaeq	r0, {r0, r1, r3, r4, r5, r7, fp}
 8000034:	00000000 	andeq	r0, r0, r0
 8000038:	080008bb 	stmdaeq	r0, {r0, r1, r3, r4, r5, r7, fp}
 800003c:	08000279 	stmdaeq	r0, {r0, r3, r4, r5, r6, r9}
 8000040:	080008b9 	stmdaeq	r0, {r0, r3, r4, r5, r7, fp}
 8000044:	080008b9 	stmdaeq	r0, {r0, r3, r4, r5, r7, fp}
 8000048:	080008b9 	stmdaeq	r0, {r0, r3, r4, r5, r7, fp}
 800004c:	080008b9 	stmdaeq	r0, {r0, r3, r4, r5, r7, fp}
 8000050:	080008b9 	stmdaeq	r0, {r0, r3, r4, r5, r7, fp}
 8000054:	080008b9 	stmdaeq	r0, {r0, r3, r4, r5, r7, fp}
 8000058:	080008b9 	stmdaeq	r0, {r0, r3, r4, r5, r7, fp}
 800005c:	080008b9 	stmdaeq	r0, {r0, r3, r4, r5, r7, fp}
 8000060:	080008b9 	stmdaeq	r0, {r0, r3, r4, r5, r7, fp}
 8000064:	080008b9 	stmdaeq	r0, {r0, r3, r4, r5, r7, fp}
 8000068:	080008b9 	stmdaeq	r0, {r0, r3, r4, r5, r7, fp}
 800006c:	080008b9 	stmdaeq	r0, {r0, r3, r4, r5, r7, fp}
 8000070:	080008b9 	stmdaeq	r0, {r0, r3, r4, r5, r7, fp}
 8000074:	080008b9 	stmdaeq	r0, {r0, r3, r4, r5, r7, fp}
 8000078:	080008b9 	stmdaeq	r0, {r0, r3, r4, r5, r7, fp}
 800007c:	080008b9 	stmdaeq	r0, {r0, r3, r4, r5, r7, fp}
 8000080:	080008b9 	stmdaeq	r0, {r0, r3, r4, r5, r7, fp}
 8000084:	080008b9 	stmdaeq	r0, {r0, r3, r4, r5, r7, fp}
 8000088:	080008b9 	stmdaeq	r0, {r0, r3, r4, r5, r7, fp}
 800008c:	080008b9 	stmdaeq	r0, {r0, r3, r4, r5, r7, fp}
 8000090:	080008b9 	stmdaeq	r0, {r0, r3, r4, r5, r7, fp}
 8000094:	080008b9 	stmdaeq	r0, {r0, r3, r4, r5, r7, fp}
 8000098:	080008b9 	stmdaeq	r0, {r0, r3, r4, r5, r7, fp}
 800009c:	080008b9 	stmdaeq	r0, {r0, r3, r4, r5, r7, fp}
 80000a0:	080008b9 	stmdaeq	r0, {r0, r3, r4, r5, r7, fp}
 80000a4:	080008b9 	stmdaeq	r0, {r0, r3, r4, r5, r7, fp}
 80000a8:	080008b9 	stmdaeq	r0, {r0, r3, r4, r5, r7, fp}
 80000ac:	080008b9 	stmdaeq	r0, {r0, r3, r4, r5, r7, fp}
 80000b0:	080008b9 	stmdaeq	r0, {r0, r3, r4, r5, r7, fp}
 80000b4:	080008b9 	stmdaeq	r0, {r0, r3, r4, r5, r7, fp}
 80000b8:	080008b9 	stmdaeq	r0, {r0, r3, r4, r5, r7, fp}
 80000bc:	080008b9 	stmdaeq	r0, {r0, r3, r4, r5, r7, fp}
 80000c0:	080008b9 	stmdaeq	r0, {r0, r3, r4, r5, r7, fp}
 80000c4:	080008b9 	stmdaeq	r0, {r0, r3, r4, r5, r7, fp}
 80000c8:	080008b9 	stmdaeq	r0, {r0, r3, r4, r5, r7, fp}
 80000cc:	080008b9 	stmdaeq	r0, {r0, r3, r4, r5, r7, fp}
 80000d0:	080008b9 	stmdaeq	r0, {r0, r3, r4, r5, r7, fp}
 80000d4:	080008b9 	stmdaeq	r0, {r0, r3, r4, r5, r7, fp}
 80000d8:	08000309 	stmdaeq	r0, {r0, r3, r8, r9}
 80000dc:	080008b9 	stmdaeq	r0, {r0, r3, r4, r5, r7, fp}
 80000e0:	080008b9 	stmdaeq	r0, {r0, r3, r4, r5, r7, fp}
 80000e4:	080008b9 	stmdaeq	r0, {r0, r3, r4, r5, r7, fp}
 80000e8:	080008b9 	stmdaeq	r0, {r0, r3, r4, r5, r7, fp}
 80000ec:	080008b9 	stmdaeq	r0, {r0, r3, r4, r5, r7, fp}
 80000f0:	080008b9 	stmdaeq	r0, {r0, r3, r4, r5, r7, fp}
 80000f4:	080008b9 	stmdaeq	r0, {r0, r3, r4, r5, r7, fp}
 80000f8:	080008b9 	stmdaeq	r0, {r0, r3, r4, r5, r7, fp}
 80000fc:	080008b9 	stmdaeq	r0, {r0, r3, r4, r5, r7, fp}
 8000100:	080008b9 	stmdaeq	r0, {r0, r3, r4, r5, r7, fp}
 8000104:	080008b9 	stmdaeq	r0, {r0, r3, r4, r5, r7, fp}
 8000108:	080008b9 	stmdaeq	r0, {r0, r3, r4, r5, r7, fp}
 800010c:	080008b9 	stmdaeq	r0, {r0, r3, r4, r5, r7, fp}
 8000110:	080008b9 	stmdaeq	r0, {r0, r3, r4, r5, r7, fp}
 8000114:	080008b9 	stmdaeq	r0, {r0, r3, r4, r5, r7, fp}
 8000118:	080008b9 	stmdaeq	r0, {r0, r3, r4, r5, r7, fp}
 800011c:	080008b9 	stmdaeq	r0, {r0, r3, r4, r5, r7, fp}
 8000120:	080008b9 	stmdaeq	r0, {r0, r3, r4, r5, r7, fp}
 8000124:	080008b9 	stmdaeq	r0, {r0, r3, r4, r5, r7, fp}
 8000128:	080008b9 	stmdaeq	r0, {r0, r3, r4, r5, r7, fp}
 800012c:	080008b9 	stmdaeq	r0, {r0, r3, r4, r5, r7, fp}
 8000130:	080008b9 	stmdaeq	r0, {r0, r3, r4, r5, r7, fp}
 8000134:	080008b9 	stmdaeq	r0, {r0, r3, r4, r5, r7, fp}
 8000138:	080008b9 	stmdaeq	r0, {r0, r3, r4, r5, r7, fp}
 800013c:	080008b9 	stmdaeq	r0, {r0, r3, r4, r5, r7, fp}
 8000140:	080008b9 	stmdaeq	r0, {r0, r3, r4, r5, r7, fp}
 8000144:	080008b9 	stmdaeq	r0, {r0, r3, r4, r5, r7, fp}
 8000148:	080008b9 	stmdaeq	r0, {r0, r3, r4, r5, r7, fp}
 800014c:	080008b9 	stmdaeq	r0, {r0, r3, r4, r5, r7, fp}
 8000150:	080008b9 	stmdaeq	r0, {r0, r3, r4, r5, r7, fp}
 8000154:	080008b9 	stmdaeq	r0, {r0, r3, r4, r5, r7, fp}
 8000158:	080008b9 	stmdaeq	r0, {r0, r3, r4, r5, r7, fp}
 800015c:	080008b9 	stmdaeq	r0, {r0, r3, r4, r5, r7, fp}
 8000160:	080008b9 	stmdaeq	r0, {r0, r3, r4, r5, r7, fp}
 8000164:	080008b9 	stmdaeq	r0, {r0, r3, r4, r5, r7, fp}
 8000168:	080008b9 	stmdaeq	r0, {r0, r3, r4, r5, r7, fp}
 800016c:	080008b9 	stmdaeq	r0, {r0, r3, r4, r5, r7, fp}
 8000170:	080008b9 	stmdaeq	r0, {r0, r3, r4, r5, r7, fp}
 8000174:	080008b9 	stmdaeq	r0, {r0, r3, r4, r5, r7, fp}
 8000178:	080008b9 	stmdaeq	r0, {r0, r3, r4, r5, r7, fp}
 800017c:	080008b9 	stmdaeq	r0, {r0, r3, r4, r5, r7, fp}
 8000180:	080008b9 	stmdaeq	r0, {r0, r3, r4, r5, r7, fp}
 8000184:	080008b9 	stmdaeq	r0, {r0, r3, r4, r5, r7, fp}
 8000188:	080008b9 	stmdaeq	r0, {r0, r3, r4, r5, r7, fp}
 800018c:	080008b9 	stmdaeq	r0, {r0, r3, r4, r5, r7, fp}
 8000190:	080008b9 	stmdaeq	r0, {r0, r3, r4, r5, r7, fp}
 8000194:	080008b9 	stmdaeq	r0, {r0, r3, r4, r5, r7, fp}
 8000198:	080008b9 	stmdaeq	r0, {r0, r3, r4, r5, r7, fp}
 800019c:	080008b9 	stmdaeq	r0, {r0, r3, r4, r5, r7, fp}
 80001a0:	080008b9 	stmdaeq	r0, {r0, r3, r4, r5, r7, fp}
 80001a4:	080008b9 	stmdaeq	r0, {r0, r3, r4, r5, r7, fp}
 80001a8:	080008b9 	stmdaeq	r0, {r0, r3, r4, r5, r7, fp}
 80001ac:	f000b57f 			@ <UNDEFINED> instruction: 0xf000b57f
 80001b0:	f44ff86f 	vst2.16	{d31-d32}, [pc :128]
 80001b4:	f00060c0 			@ <UNDEFINED> instruction: 0xf00060c0
 80001b8:	230cf96a 	movwcs	pc, #51562	@ 0xc96a	@ <UNPREDICTABLE>
 80001bc:	22004815 	andcs	r4, r0, #1376256	@ 0x150000
 80001c0:	f0002102 			@ <UNDEFINED> instruction: 0xf0002102
 80001c4:	220cf918 	andcs	pc, ip, #24, 18	@ 0x60000
 80001c8:	21074812 	tstcs	r7, r2, lsl r8
 80001cc:	f933f000 			@ <UNDEFINED> instruction: 0xf933f000
 80001d0:	f8b4f000 			@ <UNDEFINED> instruction: 0xf8b4f000
 80001d4:	f82ef000 			@ <UNDEFINED> instruction: 0xf82ef000
 80001d8:	aa014b0f 	bge	8052e1c <__exidx_end+0x4a080>
 80001dc:	0610f103 	ldreq	pc, [r0], -r3, lsl #2
 80001e0:	68184615 	ldmdavs	r8, {r0, r2, r4, r9, sl, lr}
 80001e4:	46146859 			@ <UNDEFINED> instruction: 0x46146859
 80001e8:	3308c403 	movwcc	ip, #33795	@ 0x8403
 80001ec:	462242b3 			@ <UNDEFINED> instruction: 0x462242b3
 80001f0:	881bd1f7 	ldmdahi	fp, {r0, r1, r2, r4, r5, r6, r7, r8, ip, lr, pc}
 80001f4:	46288023 	strtmi	r8, [r8], -r3, lsr #32
 80001f8:	f819f000 			@ <UNDEFINED> instruction: 0xf819f000
 80001fc:	0005f88d 	andeq	pc, r5, sp, lsl #17
 8000200:	f0004628 			@ <UNDEFINED> instruction: 0xf0004628
 8000204:	f44ff80b 	vst2.8	{d31-d32}, [pc], fp
 8000208:	210070fa 	strdcs	r7, [r0, -sl]
 800020c:	f854f000 			@ <UNDEFINED> instruction: 0xf854f000
 8000210:	bf00e7f6 	svclt	0x0000e7f6
 8000214:	40020000 	andmi	r0, r2, r0
 8000218:	08000af8 	stmdaeq	r0, {r3, r4, r5, r6, r7, r9, fp}
 800021c:	2112b507 	tstcs	r2, r7, lsl #10
 8000220:	a8019001 	stmdage	r1, {r0, ip, pc}
 8000224:	f8c6f000 			@ <UNDEFINED> instruction: 0xf8c6f000
 8000228:	f85db003 			@ <UNDEFINED> instruction: 0xf85db003
 800022c:	2111fb04 	tstcs	r1, r4, lsl #22	@ <UNPREDICTABLE>
 8000230:	b852f000 	ldmdalt	r2, {ip, sp, lr, pc}^
 8000234:	4c0eb538 	cfstr32mi	mvfx11, [lr], {56}	@ 0x38
 8000238:	220f2319 	andcs	r2, pc, #1677721600	@ 0x64000000
 800023c:	250121ff 	strcs	r2, [r1, #-511]	@ 0xfffffe01
 8000240:	70a31ce0 	adcvc	r1, r3, r0, ror #25
 8000244:	f0007025 			@ <UNDEFINED> instruction: 0xf0007025
 8000248:	4620fc05 	strtmi	pc, [r0], -r5, lsl #24
 800024c:	ffeff7ff 			@ <UNDEFINED> instruction: 0xffeff7ff
 8000250:	4c087060 	stcmi	0, cr7, [r8], {96}	@ 0x60
 8000254:	220f2315 	andcs	r2, pc, #1409286144	@ 0x54000000
 8000258:	1ce021ff 	stfnee	f2, [r0], #1020	@ 0x3fc
 800025c:	702570a3 	eorvc	r7, r5, r3, lsr #1
 8000260:	fbf8f000 	blx	7e3c26a <vector_table-0x1cbd96>
 8000264:	f7ff4620 			@ <UNDEFINED> instruction: 0xf7ff4620
 8000268:	7060ffe2 	rsbvc	pc, r0, r2, ror #31
 800026c:	bf00bd38 	svclt	0x0000bd38
 8000270:	20000022 	andcs	r0, r0, r2, lsr #32
 8000274:	20000010 	andcs	r0, r0, r0, lsl r0
 8000278:	4c04b510 	cfstr32mi	mvfx11, [r4], {16}
 800027c:	2300e9d4 	movwcs	lr, #2516	@ 0x9d4
 8000280:	f1431c50 			@ <UNDEFINED> instruction: 0xf1431c50
 8000284:	e9c40100 	stmib	r4, {r8}^
 8000288:	bd100100 	ldflts	f0, [r0, #-0]
 800028c:	20000038 	andcs	r0, r0, r8, lsr r0
 8000290:	4807b508 	stmdami	r7, {r3, r8, sl, ip, sp, pc}
 8000294:	fa2af000 	blx	8abc29c <__exidx_end+0xab3500>
 8000298:	f44f4906 	vst2.8	{d20,d22}, [pc], r6
 800029c:	f000707a 			@ <UNDEFINED> instruction: 0xf000707a
 80002a0:	f000fb67 			@ <UNDEFINED> instruction: 0xf000fb67
 80002a4:	e8bdfb88 	pop	{r3, r7, r8, r9, fp, ip, sp, lr, pc}
 80002a8:	f0004008 			@ <UNDEFINED> instruction: 0xf0004008
 80002ac:	bf00bb7d 	svclt	0x0000bb7d
 80002b0:	08000b0c 	stmdaeq	r0, {r2, r3, r8, r9, fp}
 80002b4:	0501bd00 	streq	fp, [r1, #-3328]	@ 0xfffff300
 80002b8:	4c06b510 	cfstr32mi	mvfx11, [r6], {16}
 80002bc:	2300e9d4 	movwcs	lr, #2516	@ 0x9d4
 80002c0:	eb411880 	bl	90464c8 <__exidx_end+0x103d72c>
 80002c4:	e9d40103 	ldmib	r4, {r0, r1, r8}^
 80002c8:	42822300 	addmi	r2, r2, #0, 6
 80002cc:	d3fa418b 	mvnsle	r4, #-1073741790	@ 0xc0000022
 80002d0:	bf00bd10 	svclt	0x0000bd10
 80002d4:	20000038 	andcs	r0, r0, r8, lsr r0
 80002d8:	4602b510 			@ <UNDEFINED> instruction: 0x4602b510
 80002dc:	20004401 	andcs	r4, r0, r1, lsl #8
 80002e0:	d100428a 	smlabble	r0, sl, r2, r4
 80002e4:	f812bd10 			@ <UNDEFINED> instruction: 0xf812bd10
 80002e8:	24083b01 	strcs	r3, [r8], #-2817	@ 0xfffff4ff
 80002ec:	b2434058 	sublt	r4, r3, #88	@ 0x58
 80002f0:	bfba2b00 	svclt	0x00ba2b00
 80002f4:	f083005b 			@ <UNDEFINED> instruction: 0xf083005b
 80002f8:	00430307 	subeq	r0, r3, r7, lsl #6
 80002fc:	1e63b2d8 	mcrne	2, 3, fp, cr3, cr8, {6}
 8000300:	04fff013 	ldrbteq	pc, [pc], #19	@ 8000308 <vector_table-0x7cf8>	@ <UNPREDICTABLE>
 8000304:	e7ebd1f3 			@ <UNDEFINED> instruction: 0xe7ebd1f3
 8000308:	2108b510 	tstcs	r8, r0, lsl r5
 800030c:	f0004809 			@ <UNDEFINED> instruction: 0xf0004809
 8000310:	2120facd 	smlawtcs	r0, sp, sl, pc	@ <UNPREDICTABLE>
 8000314:	48074604 	stmdami	r7, {r2, r9, sl, lr}
 8000318:	fac8f000 	blx	723c320 <vector_table-0xdcbce0>
 800031c:	b140b904 	cmplt	r0, r4, lsl #18
 8000320:	f0004804 			@ <UNDEFINED> instruction: 0xf0004804
 8000324:	e8bdfabb 	pop	{r0, r1, r3, r4, r5, r7, r9, fp, ip, sp, lr, pc}
 8000328:	b2c14010 	sbclt	r4, r1, #16
 800032c:	f0004802 			@ <UNDEFINED> instruction: 0xf0004802
 8000330:	bd10b853 	ldclt	8, cr11, [r0, #-332]	@ 0xfffffeb4
 8000334:	40004400 	andmi	r4, r0, r0, lsl #8
 8000338:	200000c0 	andcs	r0, r0, r0, asr #1
 800033c:	2280b510 	addcs	fp, r0, #16, 10	@ 0x4000000
 8000340:	49174c16 	ldmdbmi	r7, {r1, r2, r4, sl, fp, lr}
 8000344:	f0004817 			@ <UNDEFINED> instruction: 0xf0004817
 8000348:	f640f840 			@ <UNDEFINED> instruction: 0xf640f840
 800034c:	f0000011 			@ <UNDEFINED> instruction: 0xf0000011
 8000350:	4620f89e 			@ <UNDEFINED> instruction: 0x4620f89e
 8000354:	f000210c 			@ <UNDEFINED> instruction: 0xf000210c
 8000358:	4620fa7c 			@ <UNDEFINED> instruction: 0x4620fa7c
 800035c:	f0002100 			@ <UNDEFINED> instruction: 0xf0002100
 8000360:	4620fa7e 			@ <UNDEFINED> instruction: 0x4620fa7e
 8000364:	f0002108 			@ <UNDEFINED> instruction: 0xf0002108
 8000368:	4620fa5f 			@ <UNDEFINED> instruction: 0x4620fa5f
 800036c:	31e1f44f 	mvncc	pc, pc, asr #8
 8000370:	fa3ef000 	blx	8fbc378 <__exidx_end+0xfb35dc>
 8000374:	21004620 	tstcs	r0, r0, lsr #12
 8000378:	fa65f000 	blx	997c380 <__exidx_end+0x19735e4>
 800037c:	46202100 	strtmi	r2, [r0], -r0, lsl #2
 8000380:	fa5bf000 	blx	96fc388 <__exidx_end+0x16f35ec>
 8000384:	f0004620 			@ <UNDEFINED> instruction: 0xf0004620
 8000388:	2026fa80 	eorcs	pc, r6, r0, lsl #21
 800038c:	fb1af000 	blx	86bc396 <__exidx_end+0x6b35fa>
 8000390:	e8bd4620 	pop	{r5, r9, sl, lr}
 8000394:	f0004010 			@ <UNDEFINED> instruction: 0xf0004010
 8000398:	bf00ba68 	svclt	0x0000ba68
 800039c:	40004400 	andmi	r4, r0, r0, lsl #8
 80003a0:	20000040 	andcs	r0, r0, r0, asr #32
 80003a4:	200000c0 	andcs	r0, r0, r0, asr #1
 80003a8:	48014601 	stmdami	r1, {r0, r9, sl, lr}
 80003ac:	ba62f000 	blt	98bc3b4 <__exidx_end+0x18b3618>
 80003b0:	40004400 	andmi	r4, r0, r0, lsl #8
 80003b4:	4604b538 			@ <UNDEFINED> instruction: 0x4604b538
 80003b8:	42ac1845 	adcmi	r1, ip, #4521984	@ 0x450000
 80003bc:	bd38d100 	ldfltd	f5, [r8, #-0]
 80003c0:	0b01f814 	bleq	807e418 <__exidx_end+0x7567c>
 80003c4:	fff0f7ff 			@ <UNDEFINED> instruction: 0xfff0f7ff
 80003c8:	2300e7f7 	movwcs	lr, #2039	@ 0x7f7
 80003cc:	e9c03a01 	stmib	r0, {r0, r9, fp, ip, sp}^
 80003d0:	60013302 	andvs	r3, r1, r2, lsl #6
 80003d4:	47706042 	ldrbmi	r6, [r0, -r2, asr #32]!
 80003d8:	b51068c2 	ldrlt	r6, [r0, #-2242]	@ 0xfffff73e
 80003dc:	1c536844 	mrrcne	8, 4, r6, r3, cr4
 80003e0:	68844023 	stmvs	r4, {r0, r1, r5, lr}
 80003e4:	bf1b429c 	svclt	0x001b429c
 80003e8:	54a16804 	strtpl	r6, [r1], #2052	@ 0x804
 80003ec:	60c32000 	sbcvs	r2, r3, r0
 80003f0:	2001bf18 	andcs	fp, r1, r8, lsl pc
 80003f4:	e92dbd10 	push	{r4, r8, sl, fp, ip, sp, pc}
 80003f8:	680541f0 	stmdavs	r5, {r4, r5, r6, r7, r8, lr}
 80003fc:	260068c4 	strcs	r6, [r0], -r4, asr #17
 8000400:	0e03f04f 	cdpeq	0, 0, cr15, cr3, cr15, {2}
 8000404:	f706fa43 			@ <UNDEFINED> instruction: 0xf706fa43
 8000408:	d50d07ff 	strle	r0, [sp, #-2047]	@ 0xfffff801
 800040c:	fa0e0077 	blx	83805f0 <__exidx_end+0x377854>
 8000410:	fa01fc07 	blx	807f434 <__exidx_end+0x76698>
 8000414:	ea25f807 	b	897e438 <__exidx_end+0x97569c>
 8000418:	ea24050c 	b	8901850 <__exidx_end+0x8f8ab4>
 800041c:	fa02040c 	blx	8081454 <__exidx_end+0x786b8>
 8000420:	ea48f707 	b	923e044 <__exidx_end+0x12352a8>
 8000424:	433c0505 	teqmi	ip, #20971520	@ 0x1400000
 8000428:	2e103601 	cfmsub32cs	mvax0, mvfx3, mvfx0, mvfx1
 800042c:	6005d1ea 	andvs	sp, r5, sl, ror #3
 8000430:	e8bd60c4 	pop	{r2, r6, r7, sp, lr}
 8000434:	b5f081f0 	ldrblt	r8, [r0, #496]!	@ 0x1f0
 8000438:	6a456a06 	bvs	915ac58 <__exidx_end+0x1151ebc>
 800043c:	f04f2300 			@ <UNDEFINED> instruction: 0xf04f2300
 8000440:	fa420c0f 	blx	9083484 <__exidx_end+0x107a6e8>
 8000444:	07e7f403 	strbeq	pc, [r7, r3, lsl #8]!	@ <UNPREDICTABLE>
 8000448:	009cd507 	addseq	sp, ip, r7, lsl #10
 800044c:	f704fa0c 			@ <UNDEFINED> instruction: 0xf704fa0c
 8000450:	0607ea26 	streq	lr, [r7], -r6, lsr #20
 8000454:	f404fa01 	vst1.8	{d15-d16}, [r4], r1
 8000458:	33014326 	movwcc	r4, #4902	@ 0x1326
 800045c:	d1f02b08 	mvnsle	r2, r8, lsl #22
 8000460:	f04f2300 			@ <UNDEFINED> instruction: 0xf04f2300
 8000464:	f1030c0f 			@ <UNDEFINED> instruction: 0xf1030c0f
 8000468:	fa420408 	blx	9081490 <__exidx_end+0x10786f4>
 800046c:	07e4f404 	strbeq	pc, [r4, r4, lsl #8]!	@ <UNPREDICTABLE>
 8000470:	009cd507 	addseq	sp, ip, r7, lsl #10
 8000474:	f704fa0c 			@ <UNDEFINED> instruction: 0xf704fa0c
 8000478:	0507ea25 	streq	lr, [r7, #-2597]	@ 0xfffff5db
 800047c:	f404fa01 	vst1.8	{d15-d16}, [r4], r1
 8000480:	33014325 	movwcc	r4, #4901	@ 0x1325
 8000484:	d1ee2b08 	mvnle	r2, r8, lsl #22
 8000488:	62456206 	subvs	r6, r5, #1610612736	@ 0x60000000
 800048c:	0943bdf0 	stmdbeq	r3, {r4, r5, r6, r7, r8, sl, fp, ip, sp, pc}^
 8000490:	4380f103 	orrmi	pc, r0, #-1073741824	@ 0xc0000000
 8000494:	330ef503 	movwcc	pc, #58627	@ 0xe503	@ <UNPREDICTABLE>
 8000498:	001ff000 	andseq	pc, pc, r0
 800049c:	22016819 	andcs	r6, r1, #1638400	@ 0x190000
 80004a0:	430a4082 	movwmi	r4, #41090	@ 0xa082
 80004a4:	4770601a 			@ <UNDEFINED> instruction: 0x4770601a
 80004a8:	d82b2806 	stmdale	fp!, {r1, r2, fp, sp}
 80004ac:	f000e8df 			@ <UNDEFINED> instruction: 0xf000e8df
 80004b0:	0a241e04 	beq	8907cc8 <__exidx_end+0x8fef2c>
 80004b4:	001a1610 	andseq	r1, sl, r0, lsl r6
 80004b8:	f8d34b13 			@ <UNDEFINED> instruction: 0xf8d34b13
 80004bc:	f3c00800 	vmlal.u8	q8, d0, d0
 80004c0:	47706040 	ldrbmi	r6, [r0, -r0, asr #32]!
 80004c4:	f8d34b10 			@ <UNDEFINED> instruction: 0xf8d34b10
 80004c8:	f3c00800 	vmlal.u8	q8, d0, d0
 80004cc:	47704040 	ldrbmi	r4, [r0, -r0, asr #32]!
 80004d0:	f8d34b0d 			@ <UNDEFINED> instruction: 0xf8d34b0d
 80004d4:	f3c00800 	vmlal.u8	q8, d0, d0
 80004d8:	47700040 	ldrbmi	r0, [r0, -r0, asr #32]!
 80004dc:	f8d34b0a 			@ <UNDEFINED> instruction: 0xf8d34b0a
 80004e0:	e7f80870 			@ <UNDEFINED> instruction: 0xe7f80870
 80004e4:	f8d34b08 			@ <UNDEFINED> instruction: 0xf8d34b08
 80004e8:	e7f40874 			@ <UNDEFINED> instruction: 0xe7f40874
 80004ec:	f8d34b06 			@ <UNDEFINED> instruction: 0xf8d34b06
 80004f0:	f3c00800 	vmlal.u8	q8, d0, d0
 80004f4:	47707040 	ldrbmi	r7, [r0, -r0, asr #32]!
 80004f8:	f8d34b03 			@ <UNDEFINED> instruction: 0xf8d34b03
 80004fc:	f3c00800 	vmlal.u8	q8, d0, d0
 8000500:	477060c0 	ldrbmi	r6, [r0, -r0, asr #1]!
 8000504:	47702000 	ldrbmi	r2, [r0, -r0]!
 8000508:	40023000 	andmi	r3, r2, r0
 800050c:	4602b508 	strmi	fp, [r2], -r8, lsl #10
 8000510:	f7ff4610 			@ <UNDEFINED> instruction: 0xf7ff4610
 8000514:	2800ffc9 	stmdacs	r0, {r0, r3, r6, r7, r8, r9, sl, fp, ip, sp, lr, pc}
 8000518:	bd08d0fa 	stclt	0, cr13, [r8, #-1000]	@ 0xfffffc18
 800051c:	d80c2806 	stmdale	ip, {r1, r2, fp, sp}
 8000520:	f000e8df 			@ <UNDEFINED> instruction: 0xf000e8df
 8000524:	0c2e2804 	stceq	8, cr2, [lr], #-16
 8000528:	00201812 	eoreq	r1, r0, r2, lsl r8
 800052c:	f8d24a17 			@ <UNDEFINED> instruction: 0xf8d24a17
 8000530:	f0433800 			@ <UNDEFINED> instruction: 0xf0433800
 8000534:	f8c27380 			@ <UNDEFINED> instruction: 0xf8c27380
 8000538:	47703800 	ldrbmi	r3, [r0, -r0, lsl #16]!
 800053c:	f8d24a13 			@ <UNDEFINED> instruction: 0xf8d24a13
 8000540:	f4433800 	vst2.8	{d19-d20}, [r3], r0
 8000544:	e7f63380 	ldrb	r3, [r6, r0, lsl #7]!
 8000548:	f8d24a10 			@ <UNDEFINED> instruction: 0xf8d24a10
 800054c:	f0433800 			@ <UNDEFINED> instruction: 0xf0433800
 8000550:	e7f00301 	ldrb	r0, [r0, r1, lsl #6]!
 8000554:	f8d24a0d 			@ <UNDEFINED> instruction: 0xf8d24a0d
 8000558:	f0433870 			@ <UNDEFINED> instruction: 0xf0433870
 800055c:	f8c20301 			@ <UNDEFINED> instruction: 0xf8c20301
 8000560:	47703870 			@ <UNDEFINED> instruction: 0x47703870
 8000564:	f8d24a09 			@ <UNDEFINED> instruction: 0xf8d24a09
 8000568:	f0433874 			@ <UNDEFINED> instruction: 0xf0433874
 800056c:	f8c20301 			@ <UNDEFINED> instruction: 0xf8c20301
 8000570:	47703874 			@ <UNDEFINED> instruction: 0x47703874
 8000574:	f8d24a05 			@ <UNDEFINED> instruction: 0xf8d24a05
 8000578:	f0433800 			@ <UNDEFINED> instruction: 0xf0433800
 800057c:	e7da5380 	ldrb	r5, [sl, r0, lsl #7]
 8000580:	f8d24a02 			@ <UNDEFINED> instruction: 0xf8d24a02
 8000584:	f0433800 			@ <UNDEFINED> instruction: 0xf0433800
 8000588:	e7d46380 	ldrb	r6, [r4, r0, lsl #7]
 800058c:	40023000 	andmi	r3, r2, r0
 8000590:	d80c2806 	stmdale	ip, {r1, r2, fp, sp}
 8000594:	f000e8df 			@ <UNDEFINED> instruction: 0xf000e8df
 8000598:	0c2e2804 	stceq	8, cr2, [lr], #-16
 800059c:	00201812 	eoreq	r1, r0, r2, lsl r8
 80005a0:	f8d24a17 			@ <UNDEFINED> instruction: 0xf8d24a17
 80005a4:	f0233800 			@ <UNDEFINED> instruction: 0xf0233800
 80005a8:	f8c27380 			@ <UNDEFINED> instruction: 0xf8c27380
 80005ac:	47703800 	ldrbmi	r3, [r0, -r0, lsl #16]!
 80005b0:	f8d24a13 			@ <UNDEFINED> instruction: 0xf8d24a13
 80005b4:	f4233800 	vld2.8	{d3-d4}, [r3], r0
 80005b8:	e7f63380 	ldrb	r3, [r6, r0, lsl #7]!
 80005bc:	f8d24a10 			@ <UNDEFINED> instruction: 0xf8d24a10
 80005c0:	f0233800 			@ <UNDEFINED> instruction: 0xf0233800
 80005c4:	e7f00301 	ldrb	r0, [r0, r1, lsl #6]!
 80005c8:	f8d24a0d 			@ <UNDEFINED> instruction: 0xf8d24a0d
 80005cc:	f0233870 			@ <UNDEFINED> instruction: 0xf0233870
 80005d0:	f8c20301 			@ <UNDEFINED> instruction: 0xf8c20301
 80005d4:	47703870 			@ <UNDEFINED> instruction: 0x47703870
 80005d8:	f8d24a09 			@ <UNDEFINED> instruction: 0xf8d24a09
 80005dc:	f0233874 			@ <UNDEFINED> instruction: 0xf0233874
 80005e0:	f8c20301 			@ <UNDEFINED> instruction: 0xf8c20301
 80005e4:	47703874 			@ <UNDEFINED> instruction: 0x47703874
 80005e8:	f8d24a05 			@ <UNDEFINED> instruction: 0xf8d24a05
 80005ec:	f0233800 			@ <UNDEFINED> instruction: 0xf0233800
 80005f0:	e7da5380 	ldrb	r5, [sl, r0, lsl #7]
 80005f4:	f8d24a02 			@ <UNDEFINED> instruction: 0xf8d24a02
 80005f8:	f0233800 			@ <UNDEFINED> instruction: 0xf0233800
 80005fc:	e7d46380 	ldrb	r6, [r4, r0, lsl #7]
 8000600:	40023000 	andmi	r3, r2, r0
 8000604:	f8d24a04 			@ <UNDEFINED> instruction: 0xf8d24a04
 8000608:	f0233808 			@ <UNDEFINED> instruction: 0xf0233808
 800060c:	43030303 	movwmi	r0, #13059	@ 0x3303
 8000610:	3808f8c2 	stmdacc	r8, {r1, r6, r7, fp, ip, sp, lr, pc}
 8000614:	bf004770 	svclt	0x00004770
 8000618:	40023000 	andmi	r3, r2, r0
 800061c:	f8d24a04 			@ <UNDEFINED> instruction: 0xf8d24a04
 8000620:	f4233808 	vld2.8	{d3-d4}, [r3], r8
 8000624:	ea434360 	b	90d13ac <__exidx_end+0x10c8610>
 8000628:	f8c23340 			@ <UNDEFINED> instruction: 0xf8c23340
 800062c:	47703808 	ldrbmi	r3, [r0, -r8, lsl #16]!
 8000630:	40023000 	andmi	r3, r2, r0
 8000634:	f8d24a04 			@ <UNDEFINED> instruction: 0xf8d24a04
 8000638:	f4233808 	vld2.8	{d3-d4}, [r3], r8
 800063c:	ea4353e0 	b	90d55c4 <__exidx_end+0x10cc828>
 8000640:	f8c22380 			@ <UNDEFINED> instruction: 0xf8c22380
 8000644:	47703808 	ldrbmi	r3, [r0, -r8, lsl #16]!
 8000648:	40023000 	andmi	r3, r2, r0
 800064c:	f8d24a04 			@ <UNDEFINED> instruction: 0xf8d24a04
 8000650:	f0233808 			@ <UNDEFINED> instruction: 0xf0233808
 8000654:	ea4303f0 	b	90c161c <__exidx_end+0x10b8880>
 8000658:	f8c21300 			@ <UNDEFINED> instruction: 0xf8c21300
 800065c:	47703808 	ldrbmi	r3, [r0, -r8, lsl #16]!
 8000660:	40023000 	andmi	r3, r2, r0
 8000664:	f647b510 			@ <UNDEFINED> instruction: 0xf647b510
 8000668:	ea0474c0 	b	811d970 <__exidx_end+0x114bd4>
 800066c:	f0001481 			@ <UNDEFINED> instruction: 0xf0001481
 8000670:	061b003f 			@ <UNDEFINED> instruction: 0x061b003f
 8000674:	6370f003 	cmnvs	r0, #3	@ <UNPREDICTABLE>
 8000678:	431c4304 	tstmi	ip, #4, 6	@ 0x10000000
 800067c:	08529b02 	ldmdaeq	r2, {r1, r8, r9, fp, ip, pc}^
 8000680:	f1022b02 			@ <UNDEFINED> instruction: 0xf1022b02
 8000684:	ea4f32ff 	b	93cd288 <__exidx_end+0x13c44ec>
 8000688:	bf384202 	svclt	0x00384202
 800068c:	f4022302 	vst2.8	{d2-d5}, [r2], r2
 8000690:	071b3240 	ldreq	r3, [fp, -r0, asr #4]
 8000694:	43e0f003 	mvnmi	pc, #3
 8000698:	431c4314 	tstmi	ip, #20, 6	@ 0x50000000
 800069c:	f8c34b01 			@ <UNDEFINED> instruction: 0xf8c34b01
 80006a0:	bd104804 	ldclt	8, cr4, [r0, #-16]
 80006a4:	40023000 	andmi	r3, r2, r0
 80006a8:	9c02b510 	cfstr32ls	mvfx11, [r2], {16}
 80006ac:	bf382c02 	svclt	0x00382c02
 80006b0:	07242402 	streq	r2, [r4, -r2, lsl #8]!
 80006b4:	f003061b 			@ <UNDEFINED> instruction: 0xf003061b
 80006b8:	f0046370 			@ <UNDEFINED> instruction: 0xf0046370
 80006bc:	085244e0 	ldmdaeq	r2, {r5, r6, r7, sl, lr}^
 80006c0:	f000431c 			@ <UNDEFINED> instruction: 0xf000431c
 80006c4:	f647003f 			@ <UNDEFINED> instruction: 0xf647003f
 80006c8:	3a0173c0 	bcc	805d5d0 <__exidx_end+0x54834>
 80006cc:	1381ea03 	orrne	lr, r1, #12288	@ 0x3000
 80006d0:	04124304 	ldreq	r4, [r2], #-772	@ 0xfffffcfc
 80006d4:	f402431c 	vst2.8	{d4-d7}, [r2 :64], ip
 80006d8:	4b033240 	blmi	80ccfe0 <__exidx_end+0xc4244>
 80006dc:	f4444314 	vst2.8	{d20-d23}, [r4 :64], r4
 80006e0:	f8c30480 			@ <UNDEFINED> instruction: 0xf8c30480
 80006e4:	bd104804 	ldclt	8, cr4, [r0, #-16]
 80006e8:	40023000 	andmi	r3, r2, r0
 80006ec:	4604b537 			@ <UNDEFINED> instruction: 0x4604b537
 80006f0:	f7ff2004 			@ <UNDEFINED> instruction: 0xf7ff2004
 80006f4:	f7ffff13 			@ <UNDEFINED> instruction: 0xf7ffff13
 80006f8:	2000ff09 	andcs	pc, r0, r9, lsl #30
 80006fc:	ff82f7ff 			@ <UNDEFINED> instruction: 0xff82f7ff
 8000700:	2b0179e3 	blcs	805ee94 <__exidx_end+0x560f8>
 8000704:	2003d104 	andcs	sp, r3, r4, lsl #2
 8000708:	ff08f7ff 			@ <UNDEFINED> instruction: 0xff08f7ff
 800070c:	fefef7ff 	mrc2	7, 7, pc, cr14, cr15, {7}
 8000710:	001cf640 	andseq	pc, ip, r0, asr #12
 8000714:	febbf7ff 	mrc2	7, 5, pc, cr11, cr15, {7}
 8000718:	f0007be0 			@ <UNDEFINED> instruction: 0xf0007be0
 800071c:	7b20f993 	blvc	883ed70 <__exidx_end+0x835fd4>
 8000720:	ff94f7ff 			@ <UNDEFINED> instruction: 0xff94f7ff
 8000724:	f7ff7b60 			@ <UNDEFINED> instruction: 0xf7ff7b60
 8000728:	7ba0ff85 	blvc	6840544 <vector_table-0x17c7abc>
 800072c:	ff76f7ff 			@ <UNDEFINED> instruction: 0xff76f7ff
 8000730:	f7ff2000 			@ <UNDEFINED> instruction: 0xf7ff2000
 8000734:	79e3ff2d 	stmibvc	r3!, {r0, r2, r3, r5, r8, r9, sl, fp, ip, sp, lr, pc}^
 8000738:	792279a5 	stmdbvc	r2!, {r0, r2, r5, r7, r8, fp, ip, sp, lr}
 800073c:	78208861 	stmdavc	r0!, {r0, r5, r6, fp, pc}
 8000740:	79632b01 	stmdbvc	r3!, {r0, r8, r9, fp, sp}^
 8000744:	d12f9500 			@ <UNDEFINED> instruction: 0xd12f9500
 8000748:	ffaef7ff 			@ <UNDEFINED> instruction: 0xffaef7ff
 800074c:	f7ff2000 			@ <UNDEFINED> instruction: 0xf7ff2000
 8000750:	f7fffee5 			@ <UNDEFINED> instruction: 0xf7fffee5
 8000754:	68a3fedb 	stmiavs	r3!, {r0, r1, r3, r4, r6, r7, r9, sl, fp, ip, sp, lr, pc}
 8000758:	d528055a 	strle	r0, [r8, #-1370]!	@ 0xfffffaa6
 800075c:	f94af000 			@ <UNDEFINED> instruction: 0xf94af000
 8000760:	059b68a3 	ldreq	r6, [fp, #2211]	@ 0x8a3
 8000764:	f000d526 			@ <UNDEFINED> instruction: 0xf000d526
 8000768:	68a0f959 	stmiavs	r0!, {r0, r3, r4, r6, r8, fp, ip, sp, lr, pc}
 800076c:	f936f000 			@ <UNDEFINED> instruction: 0xf936f000
 8000770:	f7ff2002 			@ <UNDEFINED> instruction: 0xf7ff2002
 8000774:	4a12ff47 	bmi	84c0498 <__exidx_end+0x4b76fc>
 8000778:	3808f8d2 	stmdacc	r8, {r1, r4, r6, r7, fp, ip, sp, lr, pc}
 800077c:	030cf003 	movweq	pc, #49155	@ 0xc003	@ <UNPREDICTABLE>
 8000780:	d1f92b08 	mvnsle	r2, r8, lsl #22
 8000784:	69224b0f 	stmdbvs	r2!, {r0, r1, r2, r3, r8, r9, fp, lr}
 8000788:	4b0f601a 	blmi	83d87f8 <__exidx_end+0x3cfa5c>
 800078c:	601a6962 	andsvs	r6, sl, r2, ror #18
 8000790:	69a24b0e 	stmibvs	r2!, {r1, r2, r3, r8, r9, fp, lr}
 8000794:	79e3601a 	stmibvc	r3!, {r1, r3, r4, sp, lr}^
 8000798:	d10e2b01 	tstle	lr, r1, lsl #22
 800079c:	b0032004 	andlt	r2, r3, r4
 80007a0:	4030e8bd 	ldrhtmi	lr, [r0], -sp
 80007a4:	bef4f7ff 	mrclt	7, 7, APSR_nzcv, cr4, cr15, {7}
 80007a8:	ff5cf7ff 			@ <UNDEFINED> instruction: 0xff5cf7ff
 80007ac:	f000e7ce 			@ <UNDEFINED> instruction: 0xf000e7ce
 80007b0:	e7d5f92b 	ldrb	pc, [r5, fp, lsr #18]	@ <UNPREDICTABLE>
 80007b4:	f93cf000 			@ <UNDEFINED> instruction: 0xf93cf000
 80007b8:	b003e7d7 	ldrdlt	lr, [r3], -r7
 80007bc:	bf00bd30 	svclt	0x0000bd30
 80007c0:	40023000 	andmi	r3, r2, r0
 80007c4:	20000008 	andcs	r0, r0, r8
 80007c8:	20000004 	andcs	r0, r0, r4
 80007cc:	20000000 	andcs	r0, r0, r0
 80007d0:	f4204b04 			@ <UNDEFINED> instruction: 0xf4204b04
 80007d4:	42986080 	addsmi	r6, r8, #128	@ 0x80
 80007d8:	4b03bf0c 	blmi	80f0410 <__exidx_end+0xe7674>
 80007dc:	68184b03 	ldmdavs	r8, {r0, r1, r8, r9, fp, lr}
 80007e0:	bf004770 	svclt	0x00004770
 80007e4:	40011000 	andmi	r1, r1, r0
 80007e8:	20000000 	andcs	r0, r0, r0
 80007ec:	20000004 	andcs	r0, r0, r4
 80007f0:	4604b538 			@ <UNDEFINED> instruction: 0x4604b538
 80007f4:	f7ff460d 			@ <UNDEFINED> instruction: 0xf7ff460d
 80007f8:	68e2ffeb 	stmiavs	r2!, {r0, r1, r3, r5, r6, r7, r8, r9, sl, fp, ip, sp, lr, pc}^
 80007fc:	ea4f0412 	b	93c184c <__exidx_end+0x13b8ab0>
 8000800:	d50c0355 	strle	r0, [ip, #-853]	@ 0xfffffcab
 8000804:	0340eb03 	movteq	lr, #2819	@ 0xb03
 8000808:	f1f5fbb3 			@ <UNDEFINED> instruction: 0xf1f5fbb3
 800080c:	0342f3c1 	movteq	pc, #9153	@ 0x23c1	@ <UNPREDICTABLE>
 8000810:	010ff021 	tsteq	pc, r1, lsr #32	@ <UNPREDICTABLE>
 8000814:	0c090409 	cfstrseq	mvf0, [r9], {9}
 8000818:	60a3430b 	adcvs	r4, r3, fp, lsl #6
 800081c:	4418bd38 	ldrmi	fp, [r8], #-3384	@ 0xfffff2c8
 8000820:	f0f5fbb0 			@ <UNDEFINED> instruction: 0xf0f5fbb0
 8000824:	e7f960a0 	ldrb	r6, [r9, r0, lsr #1]!
 8000828:	290868c3 	stmdbcs	r8, {r0, r1, r6, r7, fp, sp, lr}
 800082c:	f423bf0c 			@ <UNDEFINED> instruction: 0xf423bf0c
 8000830:	f4435380 	vst2.32	{d21-d24}, [r3], r0
 8000834:	60c35380 	sbcvs	r5, r3, r0, lsl #7
 8000838:	69034770 	stmdbvs	r3, {r4, r5, r6, r8, r9, sl, lr}
 800083c:	5340f423 	movtpl	pc, #1059	@ 0x423	@ <UNPREDICTABLE>
 8000840:	6103430b 	tstvs	r3, fp, lsl #6
 8000844:	68c34770 	stmiavs	r3, {r4, r5, r6, r8, r9, sl, lr}^
 8000848:	63c0f423 	bicvs	pc, r0, #587202560	@ 0x23000000
 800084c:	60c3430b 	sbcvs	r4, r3, fp, lsl #6
 8000850:	68c34770 	stmiavs	r3, {r4, r5, r6, r8, r9, sl, lr}^
 8000854:	030cf023 	movweq	pc, #49187	@ 0xc023	@ <UNPREDICTABLE>
 8000858:	60c3430b 	sbcvs	r4, r3, fp, lsl #6
 800085c:	69434770 	stmdbvs	r3, {r4, r5, r6, r8, r9, sl, lr}^
 8000860:	7340f423 	movtvc	pc, #1059	@ 0x423	@ <UNPREDICTABLE>
 8000864:	6143430b 	cmpvs	r3, fp, lsl #6
 8000868:	68c34770 	stmiavs	r3, {r4, r5, r6, r8, r9, sl, lr}^
 800086c:	5300f443 	movwpl	pc, #1091	@ 0x443	@ <UNPREDICTABLE>
 8000870:	477060c3 	ldrbmi	r6, [r0, -r3, asr #1]!
 8000874:	4604b538 			@ <UNDEFINED> instruction: 0x4604b538
 8000878:	f000460d 			@ <UNDEFINED> instruction: 0xf000460d
 800087c:	4629f813 			@ <UNDEFINED> instruction: 0x4629f813
 8000880:	e8bd4620 	pop	{r5, r9, sl, lr}
 8000884:	f0004038 			@ <UNDEFINED> instruction: 0xf0004038
 8000888:	68c3b805 	stmiavs	r3, {r0, r2, fp, ip, sp, pc}^
 800088c:	0320f043 	nopeq	{67}	@ 0x43
 8000890:	477060c3 	ldrbmi	r6, [r0, -r3, asr #1]!
 8000894:	0108f3c1 	smlabteq	r8, r1, r3, pc	@ <UNPREDICTABLE>
 8000898:	47706041 	ldrbmi	r6, [r0, -r1, asr #32]!
 800089c:	f3c06840 	vmul.i<illegal width 8>	q11, q0, d0[0]
 80008a0:	47700008 	ldrbmi	r0, [r0, -r8]!
 80008a4:	061b6803 	ldreq	r6, [fp], -r3, lsl #16
 80008a8:	4770d5fc 			@ <UNDEFINED> instruction: 0x4770d5fc
 80008ac:	420b6803 	andmi	r6, fp, #196608	@ 0x30000
 80008b0:	2001bf14 	andcs	fp, r1, r4, lsl pc
 80008b4:	47702000 	ldrbmi	r2, [r0, -r0]!
 80008b8:	4770e7fe 			@ <UNDEFINED> instruction: 0x4770e7fe
 80008bc:	4a1db538 	bmi	876dda4 <__exidx_end+0x765008>
 80008c0:	491e4b1d 	ldmdbmi	lr, {r0, r2, r3, r4, r8, r9, fp, lr}
 80008c4:	d320428b 			@ <UNDEFINED> instruction: 0xd320428b
 80008c8:	21004a1d 	tstcs	r0, sp, lsl sl
 80008cc:	d3214293 			@ <UNDEFINED> instruction: 0xd3214293
 80008d0:	23e0f04f 	mvncs	pc, #79	@ 0x4f
 80008d4:	f8d34c1b 			@ <UNDEFINED> instruction: 0xf8d34c1b
 80008d8:	4d1b2d14 	ldcmi	13, cr2, [fp, #-80]	@ 0xffffffb0
 80008dc:	7200f442 	andvc	pc, r0, #1107296256	@ 0x42000000
 80008e0:	2d14f8c3 	ldccs	8, cr15, [r4, #-780]	@ 0xfffffcf4
 80008e4:	2d88f8d3 	stccs	8, cr15, [r8, #844]	@ 0x34c
 80008e8:	0270f442 	rsbseq	pc, r0, #1107296256	@ 0x42000000
 80008ec:	2d88f8c3 	stccs	8, cr15, [r8, #780]	@ 0x30c
 80008f0:	d31242ac 	tstle	r2, #172, 4	@ 0xc000000a
 80008f4:	4d164c15 	ldcmi	12, cr4, [r6, #-84]	@ 0xffffffac
 80008f8:	d31242ac 	tstle	r2, #172, 4	@ 0xc000000a
 80008fc:	fc56f7ff 	mrrc2	7, 15, pc, r6, cr15	@ <UNPREDICTABLE>
 8000900:	4d154c14 	ldcmi	12, cr4, [r5, #-80]	@ 0xffffffb0
 8000904:	d31042ac 	tstle	r0, #172, 4	@ 0xc000000a
 8000908:	f852bd38 			@ <UNDEFINED> instruction: 0xf852bd38
 800090c:	f8430b04 			@ <UNDEFINED> instruction: 0xf8430b04
 8000910:	e7d70b04 	ldrb	r0, [r7, r4, lsl #22]
 8000914:	1b04f843 	blne	813ea28 <__exidx_end+0x135c8c>
 8000918:	f854e7d8 			@ <UNDEFINED> instruction: 0xf854e7d8
 800091c:	47983b04 	ldrmi	r3, [r8, r4, lsl #22]
 8000920:	f854e7e6 			@ <UNDEFINED> instruction: 0xf854e7e6
 8000924:	47983b04 	ldrmi	r3, [r8, r4, lsl #22]
 8000928:	f854e7e6 			@ <UNDEFINED> instruction: 0xf854e7e6
 800092c:	47983b04 	ldrmi	r3, [r8, r4, lsl #22]
 8000930:	bf00e7e8 	svclt	0x0000e7e8
 8000934:	08000b7c 	stmdaeq	r0, {r2, r3, r4, r5, r6, r8, r9, fp}
 8000938:	20000000 	andcs	r0, r0, r0
 800093c:	2000000c 	andcs	r0, r0, ip
 8000940:	200000d0 	ldrdcs	r0, [r0], -r0	@ <UNPREDICTABLE>
 8000944:	08000b7c 	stmdaeq	r0, {r2, r3, r4, r5, r6, r8, r9, fp}
 8000948:	08000b7c 	stmdaeq	r0, {r2, r3, r4, r5, r6, r8, r9, fp}
 800094c:	08000b7c 	stmdaeq	r0, {r2, r3, r4, r5, r6, r8, r9, fp}
 8000950:	08000b7c 	stmdaeq	r0, {r2, r3, r4, r5, r6, r8, r9, fp}
 8000954:	08000b7c 	stmdaeq	r0, {r2, r3, r4, r5, r6, r8, r9, fp}
 8000958:	08000b7c 	stmdaeq	r0, {r2, r3, r4, r5, r6, r8, r9, fp}
 800095c:	22e0f04f 	rsccs	pc, r0, #79	@ 0x4f
 8000960:	0004f000 	andeq	pc, r4, r0
 8000964:	f0236913 			@ <UNDEFINED> instruction: 0xf0236913
 8000968:	43030304 	movwmi	r0, #13060	@ 0x3304
 800096c:	47706113 			@ <UNDEFINED> instruction: 0x47706113
 8000970:	fbb1b508 	blx	6c6dd9a <vector_table-0x139a266>
 8000974:	4b0bf1f0 	blmi	82fd13c <__exidx_end+0x2f43a0>
 8000978:	d8104299 	ldmdale	r0, {r0, r3, r4, r7, r9, lr}
 800097c:	437ff06f 	cmnmi	pc, #111	@ 0x6f	@ <UNPREDICTABLE>
 8000980:	bf264299 	svclt	0x00264299
 8000984:	200008c9 	andcs	r0, r0, r9, asr #17
 8000988:	f7ff2004 			@ <UNDEFINED> instruction: 0xf7ff2004
 800098c:	3901ffe7 	stmdbcc	r1, {r0, r1, r2, r5, r6, r7, r8, r9, sl, fp, ip, sp, lr, pc}
 8000990:	23e0f04f 	mvncs	pc, #79	@ 0x4f
 8000994:	417ff021 	cmnmi	pc, r1, lsr #32	@ <UNPREDICTABLE>
 8000998:	20016159 	andcs	r6, r1, r9, asr r1
 800099c:	2000bd08 	andcs	fp, r0, r8, lsl #26
 80009a0:	bf00e7fc 	svclt	0x0000e7fc
 80009a4:	07fffff7 			@ <UNDEFINED> instruction: 0x07fffff7
 80009a8:	22e0f04f 	rsccs	pc, r0, #79	@ 0x4f
 80009ac:	f0436913 			@ <UNDEFINED> instruction: 0xf0436913
 80009b0:	61130302 	tstvs	r3, r2, lsl #6
 80009b4:	f04f4770 			@ <UNDEFINED> instruction: 0xf04f4770
 80009b8:	691322e0 	ldmdbvs	r3, {r5, r6, r7, r9, sp}
 80009bc:	0301f043 	movweq	pc, #4163	@ 0x1043	@ <UNPREDICTABLE>
 80009c0:	47706113 			@ <UNDEFINED> instruction: 0x47706113
 80009c4:	09424b04 	stmdbeq	r2, {r2, r8, r9, fp, lr}^
 80009c8:	0382eb03 	orreq	lr, r2, #3072	@ 0xc00
 80009cc:	001ff000 	andseq	pc, pc, r0
 80009d0:	40822201 	addmi	r2, r2, r1, lsl #4
 80009d4:	4770601a 			@ <UNDEFINED> instruction: 0x4770601a
 80009d8:	e000e100 	and	lr, r0, r0, lsl #2
 80009dc:	f8d24a04 			@ <UNDEFINED> instruction: 0xf8d24a04
 80009e0:	f0233c00 			@ <UNDEFINED> instruction: 0xf0233c00
 80009e4:	4303030f 	movwmi	r0, #13071	@ 0x330f
 80009e8:	3c00f8c2 	stccc	8, cr15, [r0], {194}	@ 0xc2
 80009ec:	bf004770 	svclt	0x00004770
 80009f0:	40023000 	andmi	r3, r2, r0
 80009f4:	f8d24a03 			@ <UNDEFINED> instruction: 0xf8d24a03
 80009f8:	f4433c00 			@ <UNDEFINED> instruction: 0xf4433c00
 80009fc:	f8c26380 			@ <UNDEFINED> instruction: 0xf8c26380
 8000a00:	47703c00 	ldrbmi	r3, [r0, -r0, lsl #24]!
 8000a04:	40023000 	andmi	r3, r2, r0
 8000a08:	f8d24a03 			@ <UNDEFINED> instruction: 0xf8d24a03
 8000a0c:	f4233c00 			@ <UNDEFINED> instruction: 0xf4233c00
 8000a10:	f8c26380 			@ <UNDEFINED> instruction: 0xf8c26380
 8000a14:	47703c00 	ldrbmi	r3, [r0, -r0, lsl #24]!
 8000a18:	40023000 	andmi	r3, r2, r0
 8000a1c:	f8d24a03 			@ <UNDEFINED> instruction: 0xf8d24a03
 8000a20:	f4433c00 			@ <UNDEFINED> instruction: 0xf4433c00
 8000a24:	f8c27300 			@ <UNDEFINED> instruction: 0xf8c27300
 8000a28:	47703c00 	ldrbmi	r3, [r0, -r0, lsl #24]!
 8000a2c:	40023000 	andmi	r3, r2, r0
 8000a30:	f8d24a03 			@ <UNDEFINED> instruction: 0xf8d24a03
 8000a34:	f4233c00 			@ <UNDEFINED> instruction: 0xf4233c00
 8000a38:	f8c27300 			@ <UNDEFINED> instruction: 0xf8c27300
 8000a3c:	47703c00 	ldrbmi	r3, [r0, -r0, lsl #24]!
 8000a40:	40023000 	andmi	r3, r2, r0
 8000a44:	68134a02 	ldmdavs	r3, {r1, r9, fp, lr}
 8000a48:	338ff360 	orrcc	pc, pc, #96, 6	@ 0x80000001
 8000a4c:	47706013 			@ <UNDEFINED> instruction: 0x47706013
 8000a50:	40007000 	andmi	r7, r0, r0
 8000a54:	b5300783 	ldrlt	r0, [r0, #-1923]!	@ 0xfffff87d
 8000a58:	1e54d047 	cdpne	0, 5, cr13, cr4, cr7, {2}
 8000a5c:	d03e2a00 	eorsle	r2, lr, r0, lsl #20
 8000a60:	4603b2ca 	strmi	fp, [r3], -sl, asr #5
 8000a64:	3c01e001 	stccc	0, cr14, [r1], {1}
 8000a68:	f803d339 			@ <UNDEFINED> instruction: 0xf803d339
 8000a6c:	079d2b01 	ldreq	r2, [sp, r1, lsl #22]
 8000a70:	2c03d1f9 	stfcsd	f5, [r3], {249}	@ 0xf9
 8000a74:	b2cdd92c 	sbclt	sp, sp, #44, 18	@ 0xb0000
 8000a78:	2505eb05 	strcs	lr, [r5, #-2821]	@ 0xfffff4fb
 8000a7c:	eb052c0f 	bl	814bac0 <__exidx_end+0x142d24>
 8000a80:	d9354505 	ldmdble	r5!, {r0, r2, r8, sl, lr}
 8000a84:	0210f1a4 	andseq	pc, r0, #164, 2	@ 0x29
 8000a88:	0c0ff022 	stceq	0, cr15, [pc], {34}	@ 0x22
 8000a8c:	0e10f103 	mnfeqs	f7, f3
 8000a90:	ea4f44e6 	b	93d1e30 <__exidx_end+0x13c9094>
 8000a94:	461a1c12 			@ <UNDEFINED> instruction: 0x461a1c12
 8000a98:	5500e9c2 	strpl	lr, [r0, #-2498]	@ 0xfffff63e
 8000a9c:	5502e9c2 	strpl	lr, [r2, #-2498]	@ 0xfffff63e
 8000aa0:	45723210 	ldrbmi	r3, [r2, #-528]!	@ 0xfffffdf0
 8000aa4:	f10cd1f8 			@ <UNDEFINED> instruction: 0xf10cd1f8
 8000aa8:	f0140201 			@ <UNDEFINED> instruction: 0xf0140201
 8000aac:	eb030f0c 	bl	80c46e4 <__exidx_end+0xbb948>
 8000ab0:	f0041202 			@ <UNDEFINED> instruction: 0xf0041202
 8000ab4:	d0130c0f 	andsle	r0, r3, pc, lsl #24
 8000ab8:	0304f1ac 	movweq	pc, #16812	@ 0x41ac	@ <UNPREDICTABLE>
 8000abc:	0303f023 	movweq	pc, #12323	@ 0x3023	@ <UNPREDICTABLE>
 8000ac0:	44133304 	ldrmi	r3, [r3], #-772	@ 0xfffffcfc
 8000ac4:	5b04f842 	blpl	813ebd4 <__exidx_end+0x135e38>
 8000ac8:	d1fb4293 			@ <UNDEFINED> instruction: 0xd1fb4293
 8000acc:	0403f00c 	streq	pc, [r3], #-12
 8000ad0:	b2c9b12c 	sbclt	fp, r9, #44, 2
 8000ad4:	f803441c 			@ <UNDEFINED> instruction: 0xf803441c
 8000ad8:	42a31b01 	adcmi	r1, r3, #1024	@ 0x400
 8000adc:	bd30d1fb 	ldfltd	f5, [r0, #-1004]!	@ 0xfffffc14
 8000ae0:	46134664 	ldrmi	r4, [r3], -r4, ror #12
 8000ae4:	d1f42c00 	mvnsle	r2, r0, lsl #24
 8000ae8:	4603e7f9 			@ <UNDEFINED> instruction: 0x4603e7f9
 8000aec:	e7c04614 	bfi	r4, r4, (invalid: 12:0)
 8000af0:	46a4461a 	ssatmi	r4, #5, sl, lsl #12
 8000af4:	bf00e7e0 	svclt	0x0000e7e0
 8000af8:	02010009 	andeq	r0, r1, #9
 8000afc:	06050403 	streq	r0, [r5], -r3, lsl #8
 8000b00:	ff090807 			@ <UNDEFINED> instruction: 0xff090807
 8000b04:	ffffffff 			@ <UNDEFINED> instruction: 0xffffffff
 8000b08:	0000ffff 	strdeq	pc, [r0], -pc	@ <UNPREDICTABLE>
 8000b0c:	01500010 	cmpeq	r0, r0, lsl r0
 8000b10:	00000704 	andeq	r0, r0, r4, lsl #14
 8000b14:	00000602 	andeq	r0, r0, r2, lsl #12
 8000b18:	03000400 	movweq	r0, #1024	@ 0x400
 8000b1c:	0501bd00 	streq	fp, [r1, #-3328]	@ 0xfffff300
 8000b20:	0280de80 	addeq	sp, r0, #128, 28	@ 0x800
 8000b24:	0501bd00 	streq	fp, [r1, #-3328]	@ 0xfffff300
 8000b28:	00600008 	rsbeq	r0, r0, r8
 8000b2c:	00000402 	andeq	r0, r0, r2, lsl #8
 8000b30:	00000603 	andeq	r0, r0, r3, lsl #12
 8000b34:	03000400 	movweq	r0, #1024	@ 0x400
 8000b38:	05b8d800 	ldreq	sp, [r8, #2048]!	@ 0x800
 8000b3c:	02dc6c00 	sbcseq	r6, ip, #0, 24
 8000b40:	05b8d800 	ldreq	sp, [r8, #2048]!	@ 0x800
 8000b44:	01500010 	cmpeq	r0, r0, lsl r0
 8000b48:	00000702 	andeq	r0, r0, r2, lsl #14
 8000b4c:	00000605 	andeq	r0, r0, r5, lsl #12
 8000b50:	03040500 	movweq	r0, #17664	@ 0x4500
 8000b54:	0a037a00 	beq	80df35c <__exidx_end+0xd65c0>
 8000b58:	0280de80 	addeq	sp, r0, #128, 28	@ 0x800
 8000b5c:	0501bd00 	streq	fp, [r1, #-3328]	@ 0xfffff300
 8000b60:	01680010 	cmneq	r8, r0, lsl r0
 8000b64:	00000802 	andeq	r0, r0, r2, lsl #16
 8000b68:	00000605 	andeq	r0, r0, r5, lsl #12
 8000b6c:	03040500 	movweq	r0, #17664	@ 0x4500
 8000b70:	0aba9500 	beq	6ea5f78 <vector_table-0x1162088>
 8000b74:	02aea540 	adceq	sl, lr, #64, 10	@ 0x10000000
 8000b78:	055d4a80 	ldrbeq	r4, [sp, #-2688]	@ 0xfffff580
 8000b7c:	00f42400 	rscseq	r2, r4, r0, lsl #8
 8000b80:	00f42400 	rscseq	r2, r4, r0, lsl #8
 8000b84:	00f42400 	rscseq	r2, r4, r0, lsl #8
 8000b88:	ffffffff 			@ <UNDEFINED> instruction: 0xffffffff
 8000b8c:	ffffffff 			@ <UNDEFINED> instruction: 0xffffffff
 8000b90:	ffffffff 			@ <UNDEFINED> instruction: 0xffffffff
 8000b94:	ffffffff 			@ <UNDEFINED> instruction: 0xffffffff
 8000b98:	ffffffff 			@ <UNDEFINED> instruction: 0xffffffff
 8000b9c:	ffffffff 			@ <UNDEFINED> instruction: 0xffffffff
 8000ba0:	ffffffff 			@ <UNDEFINED> instruction: 0xffffffff
 8000ba4:	ffffffff 			@ <UNDEFINED> instruction: 0xffffffff
 8000ba8:	ffffffff 			@ <UNDEFINED> instruction: 0xffffffff
 8000bac:	ffffffff 			@ <UNDEFINED> instruction: 0xffffffff
 8000bb0:	ffffffff 			@ <UNDEFINED> instruction: 0xffffffff
 8000bb4:	ffffffff 			@ <UNDEFINED> instruction: 0xffffffff
 8000bb8:	ffffffff 			@ <UNDEFINED> instruction: 0xffffffff
 8000bbc:	ffffffff 			@ <UNDEFINED> instruction: 0xffffffff
 8000bc0:	ffffffff 			@ <UNDEFINED> instruction: 0xffffffff
 8000bc4:	ffffffff 			@ <UNDEFINED> instruction: 0xffffffff
 8000bc8:	ffffffff 			@ <UNDEFINED> instruction: 0xffffffff
 8000bcc:	ffffffff 			@ <UNDEFINED> instruction: 0xffffffff
 8000bd0:	ffffffff 			@ <UNDEFINED> instruction: 0xffffffff
 8000bd4:	ffffffff 			@ <UNDEFINED> instruction: 0xffffffff
 8000bd8:	ffffffff 			@ <UNDEFINED> instruction: 0xffffffff
 8000bdc:	ffffffff 			@ <UNDEFINED> instruction: 0xffffffff
 8000be0:	ffffffff 			@ <UNDEFINED> instruction: 0xffffffff
 8000be4:	ffffffff 			@ <UNDEFINED> instruction: 0xffffffff
 8000be8:	ffffffff 			@ <UNDEFINED> instruction: 0xffffffff
 8000bec:	ffffffff 			@ <UNDEFINED> instruction: 0xffffffff
 8000bf0:	ffffffff 			@ <UNDEFINED> instruction: 0xffffffff
 8000bf4:	ffffffff 			@ <UNDEFINED> instruction: 0xffffffff
 8000bf8:	ffffffff 			@ <UNDEFINED> instruction: 0xffffffff
 8000bfc:	ffffffff 			@ <UNDEFINED> instruction: 0xffffffff
 8000c00:	ffffffff 			@ <UNDEFINED> instruction: 0xffffffff
 8000c04:	ffffffff 			@ <UNDEFINED> instruction: 0xffffffff
 8000c08:	ffffffff 			@ <UNDEFINED> instruction: 0xffffffff
 8000c0c:	ffffffff 			@ <UNDEFINED> instruction: 0xffffffff
 8000c10:	ffffffff 			@ <UNDEFINED> instruction: 0xffffffff
 8000c14:	ffffffff 			@ <UNDEFINED> instruction: 0xffffffff
 8000c18:	ffffffff 			@ <UNDEFINED> instruction: 0xffffffff
 8000c1c:	ffffffff 			@ <UNDEFINED> instruction: 0xffffffff
 8000c20:	ffffffff 			@ <UNDEFINED> instruction: 0xffffffff
 8000c24:	ffffffff 			@ <UNDEFINED> instruction: 0xffffffff
 8000c28:	ffffffff 			@ <UNDEFINED> instruction: 0xffffffff
 8000c2c:	ffffffff 			@ <UNDEFINED> instruction: 0xffffffff
 8000c30:	ffffffff 			@ <UNDEFINED> instruction: 0xffffffff
 8000c34:	ffffffff 			@ <UNDEFINED> instruction: 0xffffffff
 8000c38:	ffffffff 			@ <UNDEFINED> instruction: 0xffffffff
 8000c3c:	ffffffff 			@ <UNDEFINED> instruction: 0xffffffff
 8000c40:	ffffffff 			@ <UNDEFINED> instruction: 0xffffffff
 8000c44:	ffffffff 			@ <UNDEFINED> instruction: 0xffffffff
 8000c48:	ffffffff 			@ <UNDEFINED> instruction: 0xffffffff
 8000c4c:	ffffffff 			@ <UNDEFINED> instruction: 0xffffffff
 8000c50:	ffffffff 			@ <UNDEFINED> instruction: 0xffffffff
 8000c54:	ffffffff 			@ <UNDEFINED> instruction: 0xffffffff
 8000c58:	ffffffff 			@ <UNDEFINED> instruction: 0xffffffff
 8000c5c:	ffffffff 			@ <UNDEFINED> instruction: 0xffffffff
 8000c60:	ffffffff 			@ <UNDEFINED> instruction: 0xffffffff
 8000c64:	ffffffff 			@ <UNDEFINED> instruction: 0xffffffff
 8000c68:	ffffffff 			@ <UNDEFINED> instruction: 0xffffffff
 8000c6c:	ffffffff 			@ <UNDEFINED> instruction: 0xffffffff
 8000c70:	ffffffff 			@ <UNDEFINED> instruction: 0xffffffff
 8000c74:	ffffffff 			@ <UNDEFINED> instruction: 0xffffffff
 8000c78:	ffffffff 			@ <UNDEFINED> instruction: 0xffffffff
 8000c7c:	ffffffff 			@ <UNDEFINED> instruction: 0xffffffff
 8000c80:	ffffffff 			@ <UNDEFINED> instruction: 0xffffffff
 8000c84:	ffffffff 			@ <UNDEFINED> instruction: 0xffffffff
 8000c88:	ffffffff 			@ <UNDEFINED> instruction: 0xffffffff
 8000c8c:	ffffffff 			@ <UNDEFINED> instruction: 0xffffffff
 8000c90:	ffffffff 			@ <UNDEFINED> instruction: 0xffffffff
 8000c94:	ffffffff 			@ <UNDEFINED> instruction: 0xffffffff
 8000c98:	ffffffff 			@ <UNDEFINED> instruction: 0xffffffff
 8000c9c:	ffffffff 			@ <UNDEFINED> instruction: 0xffffffff
 8000ca0:	ffffffff 			@ <UNDEFINED> instruction: 0xffffffff
 8000ca4:	ffffffff 			@ <UNDEFINED> instruction: 0xffffffff
 8000ca8:	ffffffff 			@ <UNDEFINED> instruction: 0xffffffff
 8000cac:	ffffffff 			@ <UNDEFINED> instruction: 0xffffffff
 8000cb0:	ffffffff 			@ <UNDEFINED> instruction: 0xffffffff
 8000cb4:	ffffffff 			@ <UNDEFINED> instruction: 0xffffffff
 8000cb8:	ffffffff 			@ <UNDEFINED> instruction: 0xffffffff
 8000cbc:	ffffffff 			@ <UNDEFINED> instruction: 0xffffffff
 8000cc0:	ffffffff 			@ <UNDEFINED> instruction: 0xffffffff
 8000cc4:	ffffffff 			@ <UNDEFINED> instruction: 0xffffffff
 8000cc8:	ffffffff 			@ <UNDEFINED> instruction: 0xffffffff
 8000ccc:	ffffffff 			@ <UNDEFINED> instruction: 0xffffffff
 8000cd0:	ffffffff 			@ <UNDEFINED> instruction: 0xffffffff
 8000cd4:	ffffffff 			@ <UNDEFINED> instruction: 0xffffffff
 8000cd8:	ffffffff 			@ <UNDEFINED> instruction: 0xffffffff
 8000cdc:	ffffffff 			@ <UNDEFINED> instruction: 0xffffffff
 8000ce0:	ffffffff 			@ <UNDEFINED> instruction: 0xffffffff
 8000ce4:	ffffffff 			@ <UNDEFINED> instruction: 0xffffffff
 8000ce8:	ffffffff 			@ <UNDEFINED> instruction: 0xffffffff
 8000cec:	ffffffff 			@ <UNDEFINED> instruction: 0xffffffff
 8000cf0:	ffffffff 			@ <UNDEFINED> instruction: 0xffffffff
 8000cf4:	ffffffff 			@ <UNDEFINED> instruction: 0xffffffff
 8000cf8:	ffffffff 			@ <UNDEFINED> instruction: 0xffffffff
 8000cfc:	ffffffff 			@ <UNDEFINED> instruction: 0xffffffff
 8000d00:	ffffffff 			@ <UNDEFINED> instruction: 0xffffffff
 8000d04:	ffffffff 			@ <UNDEFINED> instruction: 0xffffffff
 8000d08:	ffffffff 			@ <UNDEFINED> instruction: 0xffffffff
 8000d0c:	ffffffff 			@ <UNDEFINED> instruction: 0xffffffff
 8000d10:	ffffffff 			@ <UNDEFINED> instruction: 0xffffffff
 8000d14:	ffffffff 			@ <UNDEFINED> instruction: 0xffffffff
 8000d18:	ffffffff 			@ <UNDEFINED> instruction: 0xffffffff
 8000d1c:	ffffffff 			@ <UNDEFINED> instruction: 0xffffffff
 8000d20:	ffffffff 			@ <UNDEFINED> instruction: 0xffffffff
 8000d24:	ffffffff 			@ <UNDEFINED> instruction: 0xffffffff
 8000d28:	ffffffff 			@ <UNDEFINED> instruction: 0xffffffff
 8000d2c:	ffffffff 			@ <UNDEFINED> instruction: 0xffffffff
 8000d30:	ffffffff 			@ <UNDEFINED> instruction: 0xffffffff
 8000d34:	ffffffff 			@ <UNDEFINED> instruction: 0xffffffff
 8000d38:	ffffffff 			@ <UNDEFINED> instruction: 0xffffffff
 8000d3c:	ffffffff 			@ <UNDEFINED> instruction: 0xffffffff
 8000d40:	ffffffff 			@ <UNDEFINED> instruction: 0xffffffff
 8000d44:	ffffffff 			@ <UNDEFINED> instruction: 0xffffffff
 8000d48:	ffffffff 			@ <UNDEFINED> instruction: 0xffffffff
 8000d4c:	ffffffff 			@ <UNDEFINED> instruction: 0xffffffff
 8000d50:	ffffffff 			@ <UNDEFINED> instruction: 0xffffffff
 8000d54:	ffffffff 			@ <UNDEFINED> instruction: 0xffffffff
 8000d58:	ffffffff 			@ <UNDEFINED> instruction: 0xffffffff
 8000d5c:	ffffffff 			@ <UNDEFINED> instruction: 0xffffffff
 8000d60:	ffffffff 			@ <UNDEFINED> instruction: 0xffffffff
 8000d64:	ffffffff 			@ <UNDEFINED> instruction: 0xffffffff
 8000d68:	ffffffff 			@ <UNDEFINED> instruction: 0xffffffff
 8000d6c:	ffffffff 			@ <UNDEFINED> instruction: 0xffffffff
 8000d70:	ffffffff 			@ <UNDEFINED> instruction: 0xffffffff
 8000d74:	ffffffff 			@ <UNDEFINED> instruction: 0xffffffff
 8000d78:	ffffffff 			@ <UNDEFINED> instruction: 0xffffffff
 8000d7c:	ffffffff 			@ <UNDEFINED> instruction: 0xffffffff
 8000d80:	ffffffff 			@ <UNDEFINED> instruction: 0xffffffff
 8000d84:	ffffffff 			@ <UNDEFINED> instruction: 0xffffffff
 8000d88:	ffffffff 			@ <UNDEFINED> instruction: 0xffffffff
 8000d8c:	ffffffff 			@ <UNDEFINED> instruction: 0xffffffff
 8000d90:	ffffffff 			@ <UNDEFINED> instruction: 0xffffffff
 8000d94:	ffffffff 			@ <UNDEFINED> instruction: 0xffffffff
 8000d98:	ffffffff 			@ <UNDEFINED> instruction: 0xffffffff
 8000d9c:	ffffffff 			@ <UNDEFINED> instruction: 0xffffffff
 8000da0:	ffffffff 			@ <UNDEFINED> instruction: 0xffffffff
 8000da4:	ffffffff 			@ <UNDEFINED> instruction: 0xffffffff
 8000da8:	ffffffff 			@ <UNDEFINED> instruction: 0xffffffff
 8000dac:	ffffffff 			@ <UNDEFINED> instruction: 0xffffffff
 8000db0:	ffffffff 			@ <UNDEFINED> instruction: 0xffffffff
 8000db4:	ffffffff 			@ <UNDEFINED> instruction: 0xffffffff
 8000db8:	ffffffff 			@ <UNDEFINED> instruction: 0xffffffff
 8000dbc:	ffffffff 			@ <UNDEFINED> instruction: 0xffffffff
 8000dc0:	ffffffff 			@ <UNDEFINED> instruction: 0xffffffff
 8000dc4:	ffffffff 			@ <UNDEFINED> instruction: 0xffffffff
 8000dc8:	ffffffff 			@ <UNDEFINED> instruction: 0xffffffff
 8000dcc:	ffffffff 			@ <UNDEFINED> instruction: 0xffffffff
 8000dd0:	ffffffff 			@ <UNDEFINED> instruction: 0xffffffff
 8000dd4:	ffffffff 			@ <UNDEFINED> instruction: 0xffffffff
 8000dd8:	ffffffff 			@ <UNDEFINED> instruction: 0xffffffff
 8000ddc:	ffffffff 			@ <UNDEFINED> instruction: 0xffffffff
 8000de0:	ffffffff 			@ <UNDEFINED> instruction: 0xffffffff
 8000de4:	ffffffff 			@ <UNDEFINED> instruction: 0xffffffff
 8000de8:	ffffffff 			@ <UNDEFINED> instruction: 0xffffffff
 8000dec:	ffffffff 			@ <UNDEFINED> instruction: 0xffffffff
 8000df0:	ffffffff 			@ <UNDEFINED> instruction: 0xffffffff
 8000df4:	ffffffff 			@ <UNDEFINED> instruction: 0xffffffff
 8000df8:	ffffffff 			@ <UNDEFINED> instruction: 0xffffffff
 8000dfc:	ffffffff 			@ <UNDEFINED> instruction: 0xffffffff
 8000e00:	ffffffff 			@ <UNDEFINED> instruction: 0xffffffff
 8000e04:	ffffffff 			@ <UNDEFINED> instruction: 0xffffffff
 8000e08:	ffffffff 			@ <UNDEFINED> instruction: 0xffffffff
 8000e0c:	ffffffff 			@ <UNDEFINED> instruction: 0xffffffff
 8000e10:	ffffffff 			@ <UNDEFINED> instruction: 0xffffffff
 8000e14:	ffffffff 			@ <UNDEFINED> instruction: 0xffffffff
 8000e18:	ffffffff 			@ <UNDEFINED> instruction: 0xffffffff
 8000e1c:	ffffffff 			@ <UNDEFINED> instruction: 0xffffffff
 8000e20:	ffffffff 			@ <UNDEFINED> instruction: 0xffffffff
 8000e24:	ffffffff 			@ <UNDEFINED> instruction: 0xffffffff
 8000e28:	ffffffff 			@ <UNDEFINED> instruction: 0xffffffff
 8000e2c:	ffffffff 			@ <UNDEFINED> instruction: 0xffffffff
 8000e30:	ffffffff 			@ <UNDEFINED> instruction: 0xffffffff
 8000e34:	ffffffff 			@ <UNDEFINED> instruction: 0xffffffff
 8000e38:	ffffffff 			@ <UNDEFINED> instruction: 0xffffffff
 8000e3c:	ffffffff 			@ <UNDEFINED> instruction: 0xffffffff
 8000e40:	ffffffff 			@ <UNDEFINED> instruction: 0xffffffff
 8000e44:	ffffffff 			@ <UNDEFINED> instruction: 0xffffffff
 8000e48:	ffffffff 			@ <UNDEFINED> instruction: 0xffffffff
 8000e4c:	ffffffff 			@ <UNDEFINED> instruction: 0xffffffff
 8000e50:	ffffffff 			@ <UNDEFINED> instruction: 0xffffffff
 8000e54:	ffffffff 			@ <UNDEFINED> instruction: 0xffffffff
 8000e58:	ffffffff 			@ <UNDEFINED> instruction: 0xffffffff
 8000e5c:	ffffffff 			@ <UNDEFINED> instruction: 0xffffffff
 8000e60:	ffffffff 			@ <UNDEFINED> instruction: 0xffffffff
 8000e64:	ffffffff 			@ <UNDEFINED> instruction: 0xffffffff
 8000e68:	ffffffff 			@ <UNDEFINED> instruction: 0xffffffff
 8000e6c:	ffffffff 			@ <UNDEFINED> instruction: 0xffffffff
 8000e70:	ffffffff 			@ <UNDEFINED> instruction: 0xffffffff
 8000e74:	ffffffff 			@ <UNDEFINED> instruction: 0xffffffff
 8000e78:	ffffffff 			@ <UNDEFINED> instruction: 0xffffffff
 8000e7c:	ffffffff 			@ <UNDEFINED> instruction: 0xffffffff
 8000e80:	ffffffff 			@ <UNDEFINED> instruction: 0xffffffff
 8000e84:	ffffffff 			@ <UNDEFINED> instruction: 0xffffffff
 8000e88:	ffffffff 			@ <UNDEFINED> instruction: 0xffffffff
 8000e8c:	ffffffff 			@ <UNDEFINED> instruction: 0xffffffff
 8000e90:	ffffffff 			@ <UNDEFINED> instruction: 0xffffffff
 8000e94:	ffffffff 			@ <UNDEFINED> instruction: 0xffffffff
 8000e98:	ffffffff 			@ <UNDEFINED> instruction: 0xffffffff
 8000e9c:	ffffffff 			@ <UNDEFINED> instruction: 0xffffffff
 8000ea0:	ffffffff 			@ <UNDEFINED> instruction: 0xffffffff
 8000ea4:	ffffffff 			@ <UNDEFINED> instruction: 0xffffffff
 8000ea8:	ffffffff 			@ <UNDEFINED> instruction: 0xffffffff
 8000eac:	ffffffff 			@ <UNDEFINED> instruction: 0xffffffff
 8000eb0:	ffffffff 			@ <UNDEFINED> instruction: 0xffffffff
 8000eb4:	ffffffff 			@ <UNDEFINED> instruction: 0xffffffff
 8000eb8:	ffffffff 			@ <UNDEFINED> instruction: 0xffffffff
 8000ebc:	ffffffff 			@ <UNDEFINED> instruction: 0xffffffff
 8000ec0:	ffffffff 			@ <UNDEFINED> instruction: 0xffffffff
 8000ec4:	ffffffff 			@ <UNDEFINED> instruction: 0xffffffff
 8000ec8:	ffffffff 			@ <UNDEFINED> instruction: 0xffffffff
 8000ecc:	ffffffff 			@ <UNDEFINED> instruction: 0xffffffff
 8000ed0:	ffffffff 			@ <UNDEFINED> instruction: 0xffffffff
 8000ed4:	ffffffff 			@ <UNDEFINED> instruction: 0xffffffff
 8000ed8:	ffffffff 			@ <UNDEFINED> instruction: 0xffffffff
 8000edc:	ffffffff 			@ <UNDEFINED> instruction: 0xffffffff
 8000ee0:	ffffffff 			@ <UNDEFINED> instruction: 0xffffffff
 8000ee4:	ffffffff 			@ <UNDEFINED> instruction: 0xffffffff
 8000ee8:	ffffffff 			@ <UNDEFINED> instruction: 0xffffffff
 8000eec:	ffffffff 			@ <UNDEFINED> instruction: 0xffffffff
 8000ef0:	ffffffff 			@ <UNDEFINED> instruction: 0xffffffff
 8000ef4:	ffffffff 			@ <UNDEFINED> instruction: 0xffffffff
 8000ef8:	ffffffff 			@ <UNDEFINED> instruction: 0xffffffff
 8000efc:	ffffffff 			@ <UNDEFINED> instruction: 0xffffffff
 8000f00:	ffffffff 			@ <UNDEFINED> instruction: 0xffffffff
 8000f04:	ffffffff 			@ <UNDEFINED> instruction: 0xffffffff
 8000f08:	ffffffff 			@ <UNDEFINED> instruction: 0xffffffff
 8000f0c:	ffffffff 			@ <UNDEFINED> instruction: 0xffffffff
 8000f10:	ffffffff 			@ <UNDEFINED> instruction: 0xffffffff
 8000f14:	ffffffff 			@ <UNDEFINED> instruction: 0xffffffff
 8000f18:	ffffffff 			@ <UNDEFINED> instruction: 0xffffffff
 8000f1c:	ffffffff 			@ <UNDEFINED> instruction: 0xffffffff
 8000f20:	ffffffff 			@ <UNDEFINED> instruction: 0xffffffff
 8000f24:	ffffffff 			@ <UNDEFINED> instruction: 0xffffffff
 8000f28:	ffffffff 			@ <UNDEFINED> instruction: 0xffffffff
 8000f2c:	ffffffff 			@ <UNDEFINED> instruction: 0xffffffff
 8000f30:	ffffffff 			@ <UNDEFINED> instruction: 0xffffffff
 8000f34:	ffffffff 			@ <UNDEFINED> instruction: 0xffffffff
 8000f38:	ffffffff 			@ <UNDEFINED> instruction: 0xffffffff
 8000f3c:	ffffffff 			@ <UNDEFINED> instruction: 0xffffffff
 8000f40:	ffffffff 			@ <UNDEFINED> instruction: 0xffffffff
 8000f44:	ffffffff 			@ <UNDEFINED> instruction: 0xffffffff
 8000f48:	ffffffff 			@ <UNDEFINED> instruction: 0xffffffff
 8000f4c:	ffffffff 			@ <UNDEFINED> instruction: 0xffffffff
 8000f50:	ffffffff 			@ <UNDEFINED> instruction: 0xffffffff
 8000f54:	ffffffff 			@ <UNDEFINED> instruction: 0xffffffff
 8000f58:	ffffffff 			@ <UNDEFINED> instruction: 0xffffffff
 8000f5c:	ffffffff 			@ <UNDEFINED> instruction: 0xffffffff
 8000f60:	ffffffff 			@ <UNDEFINED> instruction: 0xffffffff
 8000f64:	ffffffff 			@ <UNDEFINED> instruction: 0xffffffff
 8000f68:	ffffffff 			@ <UNDEFINED> instruction: 0xffffffff
 8000f6c:	ffffffff 			@ <UNDEFINED> instruction: 0xffffffff
 8000f70:	ffffffff 			@ <UNDEFINED> instruction: 0xffffffff
 8000f74:	ffffffff 			@ <UNDEFINED> instruction: 0xffffffff
 8000f78:	ffffffff 			@ <UNDEFINED> instruction: 0xffffffff
 8000f7c:	ffffffff 			@ <UNDEFINED> instruction: 0xffffffff
 8000f80:	ffffffff 			@ <UNDEFINED> instruction: 0xffffffff
 8000f84:	ffffffff 			@ <UNDEFINED> instruction: 0xffffffff
 8000f88:	ffffffff 			@ <UNDEFINED> instruction: 0xffffffff
 8000f8c:	ffffffff 			@ <UNDEFINED> instruction: 0xffffffff
 8000f90:	ffffffff 			@ <UNDEFINED> instruction: 0xffffffff
 8000f94:	ffffffff 			@ <UNDEFINED> instruction: 0xffffffff
 8000f98:	ffffffff 			@ <UNDEFINED> instruction: 0xffffffff
 8000f9c:	ffffffff 			@ <UNDEFINED> instruction: 0xffffffff
 8000fa0:	ffffffff 			@ <UNDEFINED> instruction: 0xffffffff
 8000fa4:	ffffffff 			@ <UNDEFINED> instruction: 0xffffffff
 8000fa8:	ffffffff 			@ <UNDEFINED> instruction: 0xffffffff
 8000fac:	ffffffff 			@ <UNDEFINED> instruction: 0xffffffff
 8000fb0:	ffffffff 			@ <UNDEFINED> instruction: 0xffffffff
 8000fb4:	ffffffff 			@ <UNDEFINED> instruction: 0xffffffff
 8000fb8:	ffffffff 			@ <UNDEFINED> instruction: 0xffffffff
 8000fbc:	ffffffff 			@ <UNDEFINED> instruction: 0xffffffff
 8000fc0:	ffffffff 			@ <UNDEFINED> instruction: 0xffffffff
 8000fc4:	ffffffff 			@ <UNDEFINED> instruction: 0xffffffff
 8000fc8:	ffffffff 			@ <UNDEFINED> instruction: 0xffffffff
 8000fcc:	ffffffff 			@ <UNDEFINED> instruction: 0xffffffff
 8000fd0:	ffffffff 			@ <UNDEFINED> instruction: 0xffffffff
 8000fd4:	ffffffff 			@ <UNDEFINED> instruction: 0xffffffff
 8000fd8:	ffffffff 			@ <UNDEFINED> instruction: 0xffffffff
 8000fdc:	ffffffff 			@ <UNDEFINED> instruction: 0xffffffff
 8000fe0:	ffffffff 			@ <UNDEFINED> instruction: 0xffffffff
 8000fe4:	ffffffff 			@ <UNDEFINED> instruction: 0xffffffff
 8000fe8:	ffffffff 			@ <UNDEFINED> instruction: 0xffffffff
 8000fec:	ffffffff 			@ <UNDEFINED> instruction: 0xffffffff
 8000ff0:	ffffffff 			@ <UNDEFINED> instruction: 0xffffffff
 8000ff4:	ffffffff 			@ <UNDEFINED> instruction: 0xffffffff
 8000ff8:	ffffffff 			@ <UNDEFINED> instruction: 0xffffffff
 8000ffc:	ffffffff 			@ <UNDEFINED> instruction: 0xffffffff
 8001000:	ffffffff 			@ <UNDEFINED> instruction: 0xffffffff
 8001004:	ffffffff 			@ <UNDEFINED> instruction: 0xffffffff
 8001008:	ffffffff 			@ <UNDEFINED> instruction: 0xffffffff
 800100c:	ffffffff 			@ <UNDEFINED> instruction: 0xffffffff
 8001010:	ffffffff 			@ <UNDEFINED> instruction: 0xffffffff
 8001014:	ffffffff 			@ <UNDEFINED> instruction: 0xffffffff
 8001018:	ffffffff 			@ <UNDEFINED> instruction: 0xffffffff
 800101c:	ffffffff 			@ <UNDEFINED> instruction: 0xffffffff
 8001020:	ffffffff 			@ <UNDEFINED> instruction: 0xffffffff
 8001024:	ffffffff 			@ <UNDEFINED> instruction: 0xffffffff
 8001028:	ffffffff 			@ <UNDEFINED> instruction: 0xffffffff
 800102c:	ffffffff 			@ <UNDEFINED> instruction: 0xffffffff
 8001030:	ffffffff 			@ <UNDEFINED> instruction: 0xffffffff
 8001034:	ffffffff 			@ <UNDEFINED> instruction: 0xffffffff
 8001038:	ffffffff 			@ <UNDEFINED> instruction: 0xffffffff
 800103c:	ffffffff 			@ <UNDEFINED> instruction: 0xffffffff
 8001040:	ffffffff 			@ <UNDEFINED> instruction: 0xffffffff
 8001044:	ffffffff 			@ <UNDEFINED> instruction: 0xffffffff
 8001048:	ffffffff 			@ <UNDEFINED> instruction: 0xffffffff
 800104c:	ffffffff 			@ <UNDEFINED> instruction: 0xffffffff
 8001050:	ffffffff 			@ <UNDEFINED> instruction: 0xffffffff
 8001054:	ffffffff 			@ <UNDEFINED> instruction: 0xffffffff
 8001058:	ffffffff 			@ <UNDEFINED> instruction: 0xffffffff
 800105c:	ffffffff 			@ <UNDEFINED> instruction: 0xffffffff
 8001060:	ffffffff 			@ <UNDEFINED> instruction: 0xffffffff
 8001064:	ffffffff 			@ <UNDEFINED> instruction: 0xffffffff
 8001068:	ffffffff 			@ <UNDEFINED> instruction: 0xffffffff
 800106c:	ffffffff 			@ <UNDEFINED> instruction: 0xffffffff
 8001070:	ffffffff 			@ <UNDEFINED> instruction: 0xffffffff
 8001074:	ffffffff 			@ <UNDEFINED> instruction: 0xffffffff
 8001078:	ffffffff 			@ <UNDEFINED> instruction: 0xffffffff
 800107c:	ffffffff 			@ <UNDEFINED> instruction: 0xffffffff
 8001080:	ffffffff 			@ <UNDEFINED> instruction: 0xffffffff
 8001084:	ffffffff 			@ <UNDEFINED> instruction: 0xffffffff
 8001088:	ffffffff 			@ <UNDEFINED> instruction: 0xffffffff
 800108c:	ffffffff 			@ <UNDEFINED> instruction: 0xffffffff
 8001090:	ffffffff 			@ <UNDEFINED> instruction: 0xffffffff
 8001094:	ffffffff 			@ <UNDEFINED> instruction: 0xffffffff
 8001098:	ffffffff 			@ <UNDEFINED> instruction: 0xffffffff
 800109c:	ffffffff 			@ <UNDEFINED> instruction: 0xffffffff
 80010a0:	ffffffff 			@ <UNDEFINED> instruction: 0xffffffff
 80010a4:	ffffffff 			@ <UNDEFINED> instruction: 0xffffffff
 80010a8:	ffffffff 			@ <UNDEFINED> instruction: 0xffffffff
 80010ac:	ffffffff 			@ <UNDEFINED> instruction: 0xffffffff
 80010b0:	ffffffff 			@ <UNDEFINED> instruction: 0xffffffff
 80010b4:	ffffffff 			@ <UNDEFINED> instruction: 0xffffffff
 80010b8:	ffffffff 			@ <UNDEFINED> instruction: 0xffffffff
 80010bc:	ffffffff 			@ <UNDEFINED> instruction: 0xffffffff
 80010c0:	ffffffff 			@ <UNDEFINED> instruction: 0xffffffff
 80010c4:	ffffffff 			@ <UNDEFINED> instruction: 0xffffffff
 80010c8:	ffffffff 			@ <UNDEFINED> instruction: 0xffffffff
 80010cc:	ffffffff 			@ <UNDEFINED> instruction: 0xffffffff
 80010d0:	ffffffff 			@ <UNDEFINED> instruction: 0xffffffff
 80010d4:	ffffffff 			@ <UNDEFINED> instruction: 0xffffffff
 80010d8:	ffffffff 			@ <UNDEFINED> instruction: 0xffffffff
 80010dc:	ffffffff 			@ <UNDEFINED> instruction: 0xffffffff
 80010e0:	ffffffff 			@ <UNDEFINED> instruction: 0xffffffff
 80010e4:	ffffffff 			@ <UNDEFINED> instruction: 0xffffffff
 80010e8:	ffffffff 			@ <UNDEFINED> instruction: 0xffffffff
 80010ec:	ffffffff 			@ <UNDEFINED> instruction: 0xffffffff
 80010f0:	ffffffff 			@ <UNDEFINED> instruction: 0xffffffff
 80010f4:	ffffffff 			@ <UNDEFINED> instruction: 0xffffffff
 80010f8:	ffffffff 			@ <UNDEFINED> instruction: 0xffffffff
 80010fc:	ffffffff 			@ <UNDEFINED> instruction: 0xffffffff
 8001100:	ffffffff 			@ <UNDEFINED> instruction: 0xffffffff
 8001104:	ffffffff 			@ <UNDEFINED> instruction: 0xffffffff
 8001108:	ffffffff 			@ <UNDEFINED> instruction: 0xffffffff
 800110c:	ffffffff 			@ <UNDEFINED> instruction: 0xffffffff
 8001110:	ffffffff 			@ <UNDEFINED> instruction: 0xffffffff
 8001114:	ffffffff 			@ <UNDEFINED> instruction: 0xffffffff
 8001118:	ffffffff 			@ <UNDEFINED> instruction: 0xffffffff
 800111c:	ffffffff 			@ <UNDEFINED> instruction: 0xffffffff
 8001120:	ffffffff 			@ <UNDEFINED> instruction: 0xffffffff
 8001124:	ffffffff 			@ <UNDEFINED> instruction: 0xffffffff
 8001128:	ffffffff 			@ <UNDEFINED> instruction: 0xffffffff
 800112c:	ffffffff 			@ <UNDEFINED> instruction: 0xffffffff
 8001130:	ffffffff 			@ <UNDEFINED> instruction: 0xffffffff
 8001134:	ffffffff 			@ <UNDEFINED> instruction: 0xffffffff
 8001138:	ffffffff 			@ <UNDEFINED> instruction: 0xffffffff
 800113c:	ffffffff 			@ <UNDEFINED> instruction: 0xffffffff
 8001140:	ffffffff 			@ <UNDEFINED> instruction: 0xffffffff
 8001144:	ffffffff 			@ <UNDEFINED> instruction: 0xffffffff
 8001148:	ffffffff 			@ <UNDEFINED> instruction: 0xffffffff
 800114c:	ffffffff 			@ <UNDEFINED> instruction: 0xffffffff
 8001150:	ffffffff 			@ <UNDEFINED> instruction: 0xffffffff
 8001154:	ffffffff 			@ <UNDEFINED> instruction: 0xffffffff
 8001158:	ffffffff 			@ <UNDEFINED> instruction: 0xffffffff
 800115c:	ffffffff 			@ <UNDEFINED> instruction: 0xffffffff
 8001160:	ffffffff 			@ <UNDEFINED> instruction: 0xffffffff
 8001164:	ffffffff 			@ <UNDEFINED> instruction: 0xffffffff
 8001168:	ffffffff 			@ <UNDEFINED> instruction: 0xffffffff
 800116c:	ffffffff 			@ <UNDEFINED> instruction: 0xffffffff
 8001170:	ffffffff 			@ <UNDEFINED> instruction: 0xffffffff
 8001174:	ffffffff 			@ <UNDEFINED> instruction: 0xffffffff
 8001178:	ffffffff 			@ <UNDEFINED> instruction: 0xffffffff
 800117c:	ffffffff 			@ <UNDEFINED> instruction: 0xffffffff
 8001180:	ffffffff 			@ <UNDEFINED> instruction: 0xffffffff
 8001184:	ffffffff 			@ <UNDEFINED> instruction: 0xffffffff
 8001188:	ffffffff 			@ <UNDEFINED> instruction: 0xffffffff
 800118c:	ffffffff 			@ <UNDEFINED> instruction: 0xffffffff
 8001190:	ffffffff 			@ <UNDEFINED> instruction: 0xffffffff
 8001194:	ffffffff 			@ <UNDEFINED> instruction: 0xffffffff
 8001198:	ffffffff 			@ <UNDEFINED> instruction: 0xffffffff
 800119c:	ffffffff 			@ <UNDEFINED> instruction: 0xffffffff
 80011a0:	ffffffff 			@ <UNDEFINED> instruction: 0xffffffff
 80011a4:	ffffffff 			@ <UNDEFINED> instruction: 0xffffffff
 80011a8:	ffffffff 			@ <UNDEFINED> instruction: 0xffffffff
 80011ac:	ffffffff 			@ <UNDEFINED> instruction: 0xffffffff
 80011b0:	ffffffff 			@ <UNDEFINED> instruction: 0xffffffff
 80011b4:	ffffffff 			@ <UNDEFINED> instruction: 0xffffffff
 80011b8:	ffffffff 			@ <UNDEFINED> instruction: 0xffffffff
 80011bc:	ffffffff 			@ <UNDEFINED> instruction: 0xffffffff
 80011c0:	ffffffff 			@ <UNDEFINED> instruction: 0xffffffff
 80011c4:	ffffffff 			@ <UNDEFINED> instruction: 0xffffffff
 80011c8:	ffffffff 			@ <UNDEFINED> instruction: 0xffffffff
 80011cc:	ffffffff 			@ <UNDEFINED> instruction: 0xffffffff
 80011d0:	ffffffff 			@ <UNDEFINED> instruction: 0xffffffff
 80011d4:	ffffffff 			@ <UNDEFINED> instruction: 0xffffffff
 80011d8:	ffffffff 			@ <UNDEFINED> instruction: 0xffffffff
 80011dc:	ffffffff 			@ <UNDEFINED> instruction: 0xffffffff
 80011e0:	ffffffff 			@ <UNDEFINED> instruction: 0xffffffff
 80011e4:	ffffffff 			@ <UNDEFINED> instruction: 0xffffffff
 80011e8:	ffffffff 			@ <UNDEFINED> instruction: 0xffffffff
 80011ec:	ffffffff 			@ <UNDEFINED> instruction: 0xffffffff
 80011f0:	ffffffff 			@ <UNDEFINED> instruction: 0xffffffff
 80011f4:	ffffffff 			@ <UNDEFINED> instruction: 0xffffffff
 80011f8:	ffffffff 			@ <UNDEFINED> instruction: 0xffffffff
 80011fc:	ffffffff 			@ <UNDEFINED> instruction: 0xffffffff
 8001200:	ffffffff 			@ <UNDEFINED> instruction: 0xffffffff
 8001204:	ffffffff 			@ <UNDEFINED> instruction: 0xffffffff
 8001208:	ffffffff 			@ <UNDEFINED> instruction: 0xffffffff
 800120c:	ffffffff 			@ <UNDEFINED> instruction: 0xffffffff
 8001210:	ffffffff 			@ <UNDEFINED> instruction: 0xffffffff
 8001214:	ffffffff 			@ <UNDEFINED> instruction: 0xffffffff
 8001218:	ffffffff 			@ <UNDEFINED> instruction: 0xffffffff
 800121c:	ffffffff 			@ <UNDEFINED> instruction: 0xffffffff
 8001220:	ffffffff 			@ <UNDEFINED> instruction: 0xffffffff
 8001224:	ffffffff 			@ <UNDEFINED> instruction: 0xffffffff
 8001228:	ffffffff 			@ <UNDEFINED> instruction: 0xffffffff
 800122c:	ffffffff 			@ <UNDEFINED> instruction: 0xffffffff
 8001230:	ffffffff 			@ <UNDEFINED> instruction: 0xffffffff
 8001234:	ffffffff 			@ <UNDEFINED> instruction: 0xffffffff
 8001238:	ffffffff 			@ <UNDEFINED> instruction: 0xffffffff
 800123c:	ffffffff 			@ <UNDEFINED> instruction: 0xffffffff
 8001240:	ffffffff 			@ <UNDEFINED> instruction: 0xffffffff
 8001244:	ffffffff 			@ <UNDEFINED> instruction: 0xffffffff
 8001248:	ffffffff 			@ <UNDEFINED> instruction: 0xffffffff
 800124c:	ffffffff 			@ <UNDEFINED> instruction: 0xffffffff
 8001250:	ffffffff 			@ <UNDEFINED> instruction: 0xffffffff
 8001254:	ffffffff 			@ <UNDEFINED> instruction: 0xffffffff
 8001258:	ffffffff 			@ <UNDEFINED> instruction: 0xffffffff
 800125c:	ffffffff 			@ <UNDEFINED> instruction: 0xffffffff
 8001260:	ffffffff 			@ <UNDEFINED> instruction: 0xffffffff
 8001264:	ffffffff 			@ <UNDEFINED> instruction: 0xffffffff
 8001268:	ffffffff 			@ <UNDEFINED> instruction: 0xffffffff
 800126c:	ffffffff 			@ <UNDEFINED> instruction: 0xffffffff
 8001270:	ffffffff 			@ <UNDEFINED> instruction: 0xffffffff
 8001274:	ffffffff 			@ <UNDEFINED> instruction: 0xffffffff
 8001278:	ffffffff 			@ <UNDEFINED> instruction: 0xffffffff
 800127c:	ffffffff 			@ <UNDEFINED> instruction: 0xffffffff
 8001280:	ffffffff 			@ <UNDEFINED> instruction: 0xffffffff
 8001284:	ffffffff 			@ <UNDEFINED> instruction: 0xffffffff
 8001288:	ffffffff 			@ <UNDEFINED> instruction: 0xffffffff
 800128c:	ffffffff 			@ <UNDEFINED> instruction: 0xffffffff
 8001290:	ffffffff 			@ <UNDEFINED> instruction: 0xffffffff
 8001294:	ffffffff 			@ <UNDEFINED> instruction: 0xffffffff
 8001298:	ffffffff 			@ <UNDEFINED> instruction: 0xffffffff
 800129c:	ffffffff 			@ <UNDEFINED> instruction: 0xffffffff
 80012a0:	ffffffff 			@ <UNDEFINED> instruction: 0xffffffff
 80012a4:	ffffffff 			@ <UNDEFINED> instruction: 0xffffffff
 80012a8:	ffffffff 			@ <UNDEFINED> instruction: 0xffffffff
 80012ac:	ffffffff 			@ <UNDEFINED> instruction: 0xffffffff
 80012b0:	ffffffff 			@ <UNDEFINED> instruction: 0xffffffff
 80012b4:	ffffffff 			@ <UNDEFINED> instruction: 0xffffffff
 80012b8:	ffffffff 			@ <UNDEFINED> instruction: 0xffffffff
 80012bc:	ffffffff 			@ <UNDEFINED> instruction: 0xffffffff
 80012c0:	ffffffff 			@ <UNDEFINED> instruction: 0xffffffff
 80012c4:	ffffffff 			@ <UNDEFINED> instruction: 0xffffffff
 80012c8:	ffffffff 			@ <UNDEFINED> instruction: 0xffffffff
 80012cc:	ffffffff 			@ <UNDEFINED> instruction: 0xffffffff
 80012d0:	ffffffff 			@ <UNDEFINED> instruction: 0xffffffff
 80012d4:	ffffffff 			@ <UNDEFINED> instruction: 0xffffffff
 80012d8:	ffffffff 			@ <UNDEFINED> instruction: 0xffffffff
 80012dc:	ffffffff 			@ <UNDEFINED> instruction: 0xffffffff
 80012e0:	ffffffff 			@ <UNDEFINED> instruction: 0xffffffff
 80012e4:	ffffffff 			@ <UNDEFINED> instruction: 0xffffffff
 80012e8:	ffffffff 			@ <UNDEFINED> instruction: 0xffffffff
 80012ec:	ffffffff 			@ <UNDEFINED> instruction: 0xffffffff
 80012f0:	ffffffff 			@ <UNDEFINED> instruction: 0xffffffff
 80012f4:	ffffffff 			@ <UNDEFINED> instruction: 0xffffffff
 80012f8:	ffffffff 			@ <UNDEFINED> instruction: 0xffffffff
 80012fc:	ffffffff 			@ <UNDEFINED> instruction: 0xffffffff
 8001300:	ffffffff 			@ <UNDEFINED> instruction: 0xffffffff
 8001304:	ffffffff 			@ <UNDEFINED> instruction: 0xffffffff
 8001308:	ffffffff 			@ <UNDEFINED> instruction: 0xffffffff
 800130c:	ffffffff 			@ <UNDEFINED> instruction: 0xffffffff
 8001310:	ffffffff 			@ <UNDEFINED> instruction: 0xffffffff
 8001314:	ffffffff 			@ <UNDEFINED> instruction: 0xffffffff
 8001318:	ffffffff 			@ <UNDEFINED> instruction: 0xffffffff
 800131c:	ffffffff 			@ <UNDEFINED> instruction: 0xffffffff
 8001320:	ffffffff 			@ <UNDEFINED> instruction: 0xffffffff
 8001324:	ffffffff 			@ <UNDEFINED> instruction: 0xffffffff
 8001328:	ffffffff 			@ <UNDEFINED> instruction: 0xffffffff
 800132c:	ffffffff 			@ <UNDEFINED> instruction: 0xffffffff
 8001330:	ffffffff 			@ <UNDEFINED> instruction: 0xffffffff
 8001334:	ffffffff 			@ <UNDEFINED> instruction: 0xffffffff
 8001338:	ffffffff 			@ <UNDEFINED> instruction: 0xffffffff
 800133c:	ffffffff 			@ <UNDEFINED> instruction: 0xffffffff
 8001340:	ffffffff 			@ <UNDEFINED> instruction: 0xffffffff
 8001344:	ffffffff 			@ <UNDEFINED> instruction: 0xffffffff
 8001348:	ffffffff 			@ <UNDEFINED> instruction: 0xffffffff
 800134c:	ffffffff 			@ <UNDEFINED> instruction: 0xffffffff
 8001350:	ffffffff 			@ <UNDEFINED> instruction: 0xffffffff
 8001354:	ffffffff 			@ <UNDEFINED> instruction: 0xffffffff
 8001358:	ffffffff 			@ <UNDEFINED> instruction: 0xffffffff
 800135c:	ffffffff 			@ <UNDEFINED> instruction: 0xffffffff
 8001360:	ffffffff 			@ <UNDEFINED> instruction: 0xffffffff
 8001364:	ffffffff 			@ <UNDEFINED> instruction: 0xffffffff
 8001368:	ffffffff 			@ <UNDEFINED> instruction: 0xffffffff
 800136c:	ffffffff 			@ <UNDEFINED> instruction: 0xffffffff
 8001370:	ffffffff 			@ <UNDEFINED> instruction: 0xffffffff
 8001374:	ffffffff 			@ <UNDEFINED> instruction: 0xffffffff
 8001378:	ffffffff 			@ <UNDEFINED> instruction: 0xffffffff
 800137c:	ffffffff 			@ <UNDEFINED> instruction: 0xffffffff
 8001380:	ffffffff 			@ <UNDEFINED> instruction: 0xffffffff
 8001384:	ffffffff 			@ <UNDEFINED> instruction: 0xffffffff
 8001388:	ffffffff 			@ <UNDEFINED> instruction: 0xffffffff
 800138c:	ffffffff 			@ <UNDEFINED> instruction: 0xffffffff
 8001390:	ffffffff 			@ <UNDEFINED> instruction: 0xffffffff
 8001394:	ffffffff 			@ <UNDEFINED> instruction: 0xffffffff
 8001398:	ffffffff 			@ <UNDEFINED> instruction: 0xffffffff
 800139c:	ffffffff 			@ <UNDEFINED> instruction: 0xffffffff
 80013a0:	ffffffff 			@ <UNDEFINED> instruction: 0xffffffff
 80013a4:	ffffffff 			@ <UNDEFINED> instruction: 0xffffffff
 80013a8:	ffffffff 			@ <UNDEFINED> instruction: 0xffffffff
 80013ac:	ffffffff 			@ <UNDEFINED> instruction: 0xffffffff
 80013b0:	ffffffff 			@ <UNDEFINED> instruction: 0xffffffff
 80013b4:	ffffffff 			@ <UNDEFINED> instruction: 0xffffffff
 80013b8:	ffffffff 			@ <UNDEFINED> instruction: 0xffffffff
 80013bc:	ffffffff 			@ <UNDEFINED> instruction: 0xffffffff
 80013c0:	ffffffff 			@ <UNDEFINED> instruction: 0xffffffff
 80013c4:	ffffffff 			@ <UNDEFINED> instruction: 0xffffffff
 80013c8:	ffffffff 			@ <UNDEFINED> instruction: 0xffffffff
 80013cc:	ffffffff 			@ <UNDEFINED> instruction: 0xffffffff
 80013d0:	ffffffff 			@ <UNDEFINED> instruction: 0xffffffff
 80013d4:	ffffffff 			@ <UNDEFINED> instruction: 0xffffffff
 80013d8:	ffffffff 			@ <UNDEFINED> instruction: 0xffffffff
 80013dc:	ffffffff 			@ <UNDEFINED> instruction: 0xffffffff
 80013e0:	ffffffff 			@ <UNDEFINED> instruction: 0xffffffff
 80013e4:	ffffffff 			@ <UNDEFINED> instruction: 0xffffffff
 80013e8:	ffffffff 			@ <UNDEFINED> instruction: 0xffffffff
 80013ec:	ffffffff 			@ <UNDEFINED> instruction: 0xffffffff
 80013f0:	ffffffff 			@ <UNDEFINED> instruction: 0xffffffff
 80013f4:	ffffffff 			@ <UNDEFINED> instruction: 0xffffffff
 80013f8:	ffffffff 			@ <UNDEFINED> instruction: 0xffffffff
 80013fc:	ffffffff 			@ <UNDEFINED> instruction: 0xffffffff
 8001400:	ffffffff 			@ <UNDEFINED> instruction: 0xffffffff
 8001404:	ffffffff 			@ <UNDEFINED> instruction: 0xffffffff
 8001408:	ffffffff 			@ <UNDEFINED> instruction: 0xffffffff
 800140c:	ffffffff 			@ <UNDEFINED> instruction: 0xffffffff
 8001410:	ffffffff 			@ <UNDEFINED> instruction: 0xffffffff
 8001414:	ffffffff 			@ <UNDEFINED> instruction: 0xffffffff
 8001418:	ffffffff 			@ <UNDEFINED> instruction: 0xffffffff
 800141c:	ffffffff 			@ <UNDEFINED> instruction: 0xffffffff
 8001420:	ffffffff 			@ <UNDEFINED> instruction: 0xffffffff
 8001424:	ffffffff 			@ <UNDEFINED> instruction: 0xffffffff
 8001428:	ffffffff 			@ <UNDEFINED> instruction: 0xffffffff
 800142c:	ffffffff 			@ <UNDEFINED> instruction: 0xffffffff
 8001430:	ffffffff 			@ <UNDEFINED> instruction: 0xffffffff
 8001434:	ffffffff 			@ <UNDEFINED> instruction: 0xffffffff
 8001438:	ffffffff 			@ <UNDEFINED> instruction: 0xffffffff
 800143c:	ffffffff 			@ <UNDEFINED> instruction: 0xffffffff
 8001440:	ffffffff 			@ <UNDEFINED> instruction: 0xffffffff
 8001444:	ffffffff 			@ <UNDEFINED> instruction: 0xffffffff
 8001448:	ffffffff 			@ <UNDEFINED> instruction: 0xffffffff
 800144c:	ffffffff 			@ <UNDEFINED> instruction: 0xffffffff
 8001450:	ffffffff 			@ <UNDEFINED> instruction: 0xffffffff
 8001454:	ffffffff 			@ <UNDEFINED> instruction: 0xffffffff
 8001458:	ffffffff 			@ <UNDEFINED> instruction: 0xffffffff
 800145c:	ffffffff 			@ <UNDEFINED> instruction: 0xffffffff
 8001460:	ffffffff 			@ <UNDEFINED> instruction: 0xffffffff
 8001464:	ffffffff 			@ <UNDEFINED> instruction: 0xffffffff
 8001468:	ffffffff 			@ <UNDEFINED> instruction: 0xffffffff
 800146c:	ffffffff 			@ <UNDEFINED> instruction: 0xffffffff
 8001470:	ffffffff 			@ <UNDEFINED> instruction: 0xffffffff
 8001474:	ffffffff 			@ <UNDEFINED> instruction: 0xffffffff
 8001478:	ffffffff 			@ <UNDEFINED> instruction: 0xffffffff
 800147c:	ffffffff 			@ <UNDEFINED> instruction: 0xffffffff
 8001480:	ffffffff 			@ <UNDEFINED> instruction: 0xffffffff
 8001484:	ffffffff 			@ <UNDEFINED> instruction: 0xffffffff
 8001488:	ffffffff 			@ <UNDEFINED> instruction: 0xffffffff
 800148c:	ffffffff 			@ <UNDEFINED> instruction: 0xffffffff
 8001490:	ffffffff 			@ <UNDEFINED> instruction: 0xffffffff
 8001494:	ffffffff 			@ <UNDEFINED> instruction: 0xffffffff
 8001498:	ffffffff 			@ <UNDEFINED> instruction: 0xffffffff
 800149c:	ffffffff 			@ <UNDEFINED> instruction: 0xffffffff
 80014a0:	ffffffff 			@ <UNDEFINED> instruction: 0xffffffff
 80014a4:	ffffffff 			@ <UNDEFINED> instruction: 0xffffffff
 80014a8:	ffffffff 			@ <UNDEFINED> instruction: 0xffffffff
 80014ac:	ffffffff 			@ <UNDEFINED> instruction: 0xffffffff
 80014b0:	ffffffff 			@ <UNDEFINED> instruction: 0xffffffff
 80014b4:	ffffffff 			@ <UNDEFINED> instruction: 0xffffffff
 80014b8:	ffffffff 			@ <UNDEFINED> instruction: 0xffffffff
 80014bc:	ffffffff 			@ <UNDEFINED> instruction: 0xffffffff
 80014c0:	ffffffff 			@ <UNDEFINED> instruction: 0xffffffff
 80014c4:	ffffffff 			@ <UNDEFINED> instruction: 0xffffffff
 80014c8:	ffffffff 			@ <UNDEFINED> instruction: 0xffffffff
 80014cc:	ffffffff 			@ <UNDEFINED> instruction: 0xffffffff
 80014d0:	ffffffff 			@ <UNDEFINED> instruction: 0xffffffff
 80014d4:	ffffffff 			@ <UNDEFINED> instruction: 0xffffffff
 80014d8:	ffffffff 			@ <UNDEFINED> instruction: 0xffffffff
 80014dc:	ffffffff 			@ <UNDEFINED> instruction: 0xffffffff
 80014e0:	ffffffff 			@ <UNDEFINED> instruction: 0xffffffff
 80014e4:	ffffffff 			@ <UNDEFINED> instruction: 0xffffffff
 80014e8:	ffffffff 			@ <UNDEFINED> instruction: 0xffffffff
 80014ec:	ffffffff 			@ <UNDEFINED> instruction: 0xffffffff
 80014f0:	ffffffff 			@ <UNDEFINED> instruction: 0xffffffff
 80014f4:	ffffffff 			@ <UNDEFINED> instruction: 0xffffffff
 80014f8:	ffffffff 			@ <UNDEFINED> instruction: 0xffffffff
 80014fc:	ffffffff 			@ <UNDEFINED> instruction: 0xffffffff
 8001500:	ffffffff 			@ <UNDEFINED> instruction: 0xffffffff
 8001504:	ffffffff 			@ <UNDEFINED> instruction: 0xffffffff
 8001508:	ffffffff 			@ <UNDEFINED> instruction: 0xffffffff
 800150c:	ffffffff 			@ <UNDEFINED> instruction: 0xffffffff
 8001510:	ffffffff 			@ <UNDEFINED> instruction: 0xffffffff
 8001514:	ffffffff 			@ <UNDEFINED> instruction: 0xffffffff
 8001518:	ffffffff 			@ <UNDEFINED> instruction: 0xffffffff
 800151c:	ffffffff 			@ <UNDEFINED> instruction: 0xffffffff
 8001520:	ffffffff 			@ <UNDEFINED> instruction: 0xffffffff
 8001524:	ffffffff 			@ <UNDEFINED> instruction: 0xffffffff
 8001528:	ffffffff 			@ <UNDEFINED> instruction: 0xffffffff
 800152c:	ffffffff 			@ <UNDEFINED> instruction: 0xffffffff
 8001530:	ffffffff 			@ <UNDEFINED> instruction: 0xffffffff
 8001534:	ffffffff 			@ <UNDEFINED> instruction: 0xffffffff
 8001538:	ffffffff 			@ <UNDEFINED> instruction: 0xffffffff
 800153c:	ffffffff 			@ <UNDEFINED> instruction: 0xffffffff
 8001540:	ffffffff 			@ <UNDEFINED> instruction: 0xffffffff
 8001544:	ffffffff 			@ <UNDEFINED> instruction: 0xffffffff
 8001548:	ffffffff 			@ <UNDEFINED> instruction: 0xffffffff
 800154c:	ffffffff 			@ <UNDEFINED> instruction: 0xffffffff
 8001550:	ffffffff 			@ <UNDEFINED> instruction: 0xffffffff
 8001554:	ffffffff 			@ <UNDEFINED> instruction: 0xffffffff
 8001558:	ffffffff 			@ <UNDEFINED> instruction: 0xffffffff
 800155c:	ffffffff 			@ <UNDEFINED> instruction: 0xffffffff
 8001560:	ffffffff 			@ <UNDEFINED> instruction: 0xffffffff
 8001564:	ffffffff 			@ <UNDEFINED> instruction: 0xffffffff
 8001568:	ffffffff 			@ <UNDEFINED> instruction: 0xffffffff
 800156c:	ffffffff 			@ <UNDEFINED> instruction: 0xffffffff
 8001570:	ffffffff 			@ <UNDEFINED> instruction: 0xffffffff
 8001574:	ffffffff 			@ <UNDEFINED> instruction: 0xffffffff
 8001578:	ffffffff 			@ <UNDEFINED> instruction: 0xffffffff
 800157c:	ffffffff 			@ <UNDEFINED> instruction: 0xffffffff
 8001580:	ffffffff 			@ <UNDEFINED> instruction: 0xffffffff
 8001584:	ffffffff 			@ <UNDEFINED> instruction: 0xffffffff
 8001588:	ffffffff 			@ <UNDEFINED> instruction: 0xffffffff
 800158c:	ffffffff 			@ <UNDEFINED> instruction: 0xffffffff
 8001590:	ffffffff 			@ <UNDEFINED> instruction: 0xffffffff
 8001594:	ffffffff 			@ <UNDEFINED> instruction: 0xffffffff
 8001598:	ffffffff 			@ <UNDEFINED> instruction: 0xffffffff
 800159c:	ffffffff 			@ <UNDEFINED> instruction: 0xffffffff
 80015a0:	ffffffff 			@ <UNDEFINED> instruction: 0xffffffff
 80015a4:	ffffffff 			@ <UNDEFINED> instruction: 0xffffffff
 80015a8:	ffffffff 			@ <UNDEFINED> instruction: 0xffffffff
 80015ac:	ffffffff 			@ <UNDEFINED> instruction: 0xffffffff
 80015b0:	ffffffff 			@ <UNDEFINED> instruction: 0xffffffff
 80015b4:	ffffffff 			@ <UNDEFINED> instruction: 0xffffffff
 80015b8:	ffffffff 			@ <UNDEFINED> instruction: 0xffffffff
 80015bc:	ffffffff 			@ <UNDEFINED> instruction: 0xffffffff
 80015c0:	ffffffff 			@ <UNDEFINED> instruction: 0xffffffff
 80015c4:	ffffffff 			@ <UNDEFINED> instruction: 0xffffffff
 80015c8:	ffffffff 			@ <UNDEFINED> instruction: 0xffffffff
 80015cc:	ffffffff 			@ <UNDEFINED> instruction: 0xffffffff
 80015d0:	ffffffff 			@ <UNDEFINED> instruction: 0xffffffff
 80015d4:	ffffffff 			@ <UNDEFINED> instruction: 0xffffffff
 80015d8:	ffffffff 			@ <UNDEFINED> instruction: 0xffffffff
 80015dc:	ffffffff 			@ <UNDEFINED> instruction: 0xffffffff
 80015e0:	ffffffff 			@ <UNDEFINED> instruction: 0xffffffff
 80015e4:	ffffffff 			@ <UNDEFINED> instruction: 0xffffffff
 80015e8:	ffffffff 			@ <UNDEFINED> instruction: 0xffffffff
 80015ec:	ffffffff 			@ <UNDEFINED> instruction: 0xffffffff
 80015f0:	ffffffff 			@ <UNDEFINED> instruction: 0xffffffff
 80015f4:	ffffffff 			@ <UNDEFINED> instruction: 0xffffffff
 80015f8:	ffffffff 			@ <UNDEFINED> instruction: 0xffffffff
 80015fc:	ffffffff 			@ <UNDEFINED> instruction: 0xffffffff
 8001600:	ffffffff 			@ <UNDEFINED> instruction: 0xffffffff
 8001604:	ffffffff 			@ <UNDEFINED> instruction: 0xffffffff
 8001608:	ffffffff 			@ <UNDEFINED> instruction: 0xffffffff
 800160c:	ffffffff 			@ <UNDEFINED> instruction: 0xffffffff
 8001610:	ffffffff 			@ <UNDEFINED> instruction: 0xffffffff
 8001614:	ffffffff 			@ <UNDEFINED> instruction: 0xffffffff
 8001618:	ffffffff 			@ <UNDEFINED> instruction: 0xffffffff
 800161c:	ffffffff 			@ <UNDEFINED> instruction: 0xffffffff
 8001620:	ffffffff 			@ <UNDEFINED> instruction: 0xffffffff
 8001624:	ffffffff 			@ <UNDEFINED> instruction: 0xffffffff
 8001628:	ffffffff 			@ <UNDEFINED> instruction: 0xffffffff
 800162c:	ffffffff 			@ <UNDEFINED> instruction: 0xffffffff
 8001630:	ffffffff 			@ <UNDEFINED> instruction: 0xffffffff
 8001634:	ffffffff 			@ <UNDEFINED> instruction: 0xffffffff
 8001638:	ffffffff 			@ <UNDEFINED> instruction: 0xffffffff
 800163c:	ffffffff 			@ <UNDEFINED> instruction: 0xffffffff
 8001640:	ffffffff 			@ <UNDEFINED> instruction: 0xffffffff
 8001644:	ffffffff 			@ <UNDEFINED> instruction: 0xffffffff
 8001648:	ffffffff 			@ <UNDEFINED> instruction: 0xffffffff
 800164c:	ffffffff 			@ <UNDEFINED> instruction: 0xffffffff
 8001650:	ffffffff 			@ <UNDEFINED> instruction: 0xffffffff
 8001654:	ffffffff 			@ <UNDEFINED> instruction: 0xffffffff
 8001658:	ffffffff 			@ <UNDEFINED> instruction: 0xffffffff
 800165c:	ffffffff 			@ <UNDEFINED> instruction: 0xffffffff
 8001660:	ffffffff 			@ <UNDEFINED> instruction: 0xffffffff
 8001664:	ffffffff 			@ <UNDEFINED> instruction: 0xffffffff
 8001668:	ffffffff 			@ <UNDEFINED> instruction: 0xffffffff
 800166c:	ffffffff 			@ <UNDEFINED> instruction: 0xffffffff
 8001670:	ffffffff 			@ <UNDEFINED> instruction: 0xffffffff
 8001674:	ffffffff 			@ <UNDEFINED> instruction: 0xffffffff
 8001678:	ffffffff 			@ <UNDEFINED> instruction: 0xffffffff
 800167c:	ffffffff 			@ <UNDEFINED> instruction: 0xffffffff
 8001680:	ffffffff 			@ <UNDEFINED> instruction: 0xffffffff
 8001684:	ffffffff 			@ <UNDEFINED> instruction: 0xffffffff
 8001688:	ffffffff 			@ <UNDEFINED> instruction: 0xffffffff
 800168c:	ffffffff 			@ <UNDEFINED> instruction: 0xffffffff
 8001690:	ffffffff 			@ <UNDEFINED> instruction: 0xffffffff
 8001694:	ffffffff 			@ <UNDEFINED> instruction: 0xffffffff
 8001698:	ffffffff 			@ <UNDEFINED> instruction: 0xffffffff
 800169c:	ffffffff 			@ <UNDEFINED> instruction: 0xffffffff
 80016a0:	ffffffff 			@ <UNDEFINED> instruction: 0xffffffff
 80016a4:	ffffffff 			@ <UNDEFINED> instruction: 0xffffffff
 80016a8:	ffffffff 			@ <UNDEFINED> instruction: 0xffffffff
 80016ac:	ffffffff 			@ <UNDEFINED> instruction: 0xffffffff
 80016b0:	ffffffff 			@ <UNDEFINED> instruction: 0xffffffff
 80016b4:	ffffffff 			@ <UNDEFINED> instruction: 0xffffffff
 80016b8:	ffffffff 			@ <UNDEFINED> instruction: 0xffffffff
 80016bc:	ffffffff 			@ <UNDEFINED> instruction: 0xffffffff
 80016c0:	ffffffff 			@ <UNDEFINED> instruction: 0xffffffff
 80016c4:	ffffffff 			@ <UNDEFINED> instruction: 0xffffffff
 80016c8:	ffffffff 			@ <UNDEFINED> instruction: 0xffffffff
 80016cc:	ffffffff 			@ <UNDEFINED> instruction: 0xffffffff
 80016d0:	ffffffff 			@ <UNDEFINED> instruction: 0xffffffff
 80016d4:	ffffffff 			@ <UNDEFINED> instruction: 0xffffffff
 80016d8:	ffffffff 			@ <UNDEFINED> instruction: 0xffffffff
 80016dc:	ffffffff 			@ <UNDEFINED> instruction: 0xffffffff
 80016e0:	ffffffff 			@ <UNDEFINED> instruction: 0xffffffff
 80016e4:	ffffffff 			@ <UNDEFINED> instruction: 0xffffffff
 80016e8:	ffffffff 			@ <UNDEFINED> instruction: 0xffffffff
 80016ec:	ffffffff 			@ <UNDEFINED> instruction: 0xffffffff
 80016f0:	ffffffff 			@ <UNDEFINED> instruction: 0xffffffff
 80016f4:	ffffffff 			@ <UNDEFINED> instruction: 0xffffffff
 80016f8:	ffffffff 			@ <UNDEFINED> instruction: 0xffffffff
 80016fc:	ffffffff 			@ <UNDEFINED> instruction: 0xffffffff
 8001700:	ffffffff 			@ <UNDEFINED> instruction: 0xffffffff
 8001704:	ffffffff 			@ <UNDEFINED> instruction: 0xffffffff
 8001708:	ffffffff 			@ <UNDEFINED> instruction: 0xffffffff
 800170c:	ffffffff 			@ <UNDEFINED> instruction: 0xffffffff
 8001710:	ffffffff 			@ <UNDEFINED> instruction: 0xffffffff
 8001714:	ffffffff 			@ <UNDEFINED> instruction: 0xffffffff
 8001718:	ffffffff 			@ <UNDEFINED> instruction: 0xffffffff
 800171c:	ffffffff 			@ <UNDEFINED> instruction: 0xffffffff
 8001720:	ffffffff 			@ <UNDEFINED> instruction: 0xffffffff
 8001724:	ffffffff 			@ <UNDEFINED> instruction: 0xffffffff
 8001728:	ffffffff 			@ <UNDEFINED> instruction: 0xffffffff
 800172c:	ffffffff 			@ <UNDEFINED> instruction: 0xffffffff
 8001730:	ffffffff 			@ <UNDEFINED> instruction: 0xffffffff
 8001734:	ffffffff 			@ <UNDEFINED> instruction: 0xffffffff
 8001738:	ffffffff 			@ <UNDEFINED> instruction: 0xffffffff
 800173c:	ffffffff 			@ <UNDEFINED> instruction: 0xffffffff
 8001740:	ffffffff 			@ <UNDEFINED> instruction: 0xffffffff
 8001744:	ffffffff 			@ <UNDEFINED> instruction: 0xffffffff
 8001748:	ffffffff 			@ <UNDEFINED> instruction: 0xffffffff
 800174c:	ffffffff 			@ <UNDEFINED> instruction: 0xffffffff
 8001750:	ffffffff 			@ <UNDEFINED> instruction: 0xffffffff
 8001754:	ffffffff 			@ <UNDEFINED> instruction: 0xffffffff
 8001758:	ffffffff 			@ <UNDEFINED> instruction: 0xffffffff
 800175c:	ffffffff 			@ <UNDEFINED> instruction: 0xffffffff
 8001760:	ffffffff 			@ <UNDEFINED> instruction: 0xffffffff
 8001764:	ffffffff 			@ <UNDEFINED> instruction: 0xffffffff
 8001768:	ffffffff 			@ <UNDEFINED> instruction: 0xffffffff
 800176c:	ffffffff 			@ <UNDEFINED> instruction: 0xffffffff
 8001770:	ffffffff 			@ <UNDEFINED> instruction: 0xffffffff
 8001774:	ffffffff 			@ <UNDEFINED> instruction: 0xffffffff
 8001778:	ffffffff 			@ <UNDEFINED> instruction: 0xffffffff
 800177c:	ffffffff 			@ <UNDEFINED> instruction: 0xffffffff
 8001780:	ffffffff 			@ <UNDEFINED> instruction: 0xffffffff
 8001784:	ffffffff 			@ <UNDEFINED> instruction: 0xffffffff
 8001788:	ffffffff 			@ <UNDEFINED> instruction: 0xffffffff
 800178c:	ffffffff 			@ <UNDEFINED> instruction: 0xffffffff
 8001790:	ffffffff 			@ <UNDEFINED> instruction: 0xffffffff
 8001794:	ffffffff 			@ <UNDEFINED> instruction: 0xffffffff
 8001798:	ffffffff 			@ <UNDEFINED> instruction: 0xffffffff
 800179c:	ffffffff 			@ <UNDEFINED> instruction: 0xffffffff
 80017a0:	ffffffff 			@ <UNDEFINED> instruction: 0xffffffff
 80017a4:	ffffffff 			@ <UNDEFINED> instruction: 0xffffffff
 80017a8:	ffffffff 			@ <UNDEFINED> instruction: 0xffffffff
 80017ac:	ffffffff 			@ <UNDEFINED> instruction: 0xffffffff
 80017b0:	ffffffff 			@ <UNDEFINED> instruction: 0xffffffff
 80017b4:	ffffffff 			@ <UNDEFINED> instruction: 0xffffffff
 80017b8:	ffffffff 			@ <UNDEFINED> instruction: 0xffffffff
 80017bc:	ffffffff 			@ <UNDEFINED> instruction: 0xffffffff
 80017c0:	ffffffff 			@ <UNDEFINED> instruction: 0xffffffff
 80017c4:	ffffffff 			@ <UNDEFINED> instruction: 0xffffffff
 80017c8:	ffffffff 			@ <UNDEFINED> instruction: 0xffffffff
 80017cc:	ffffffff 			@ <UNDEFINED> instruction: 0xffffffff
 80017d0:	ffffffff 			@ <UNDEFINED> instruction: 0xffffffff
 80017d4:	ffffffff 			@ <UNDEFINED> instruction: 0xffffffff
 80017d8:	ffffffff 			@ <UNDEFINED> instruction: 0xffffffff
 80017dc:	ffffffff 			@ <UNDEFINED> instruction: 0xffffffff
 80017e0:	ffffffff 			@ <UNDEFINED> instruction: 0xffffffff
 80017e4:	ffffffff 			@ <UNDEFINED> instruction: 0xffffffff
 80017e8:	ffffffff 			@ <UNDEFINED> instruction: 0xffffffff
 80017ec:	ffffffff 			@ <UNDEFINED> instruction: 0xffffffff
 80017f0:	ffffffff 			@ <UNDEFINED> instruction: 0xffffffff
 80017f4:	ffffffff 			@ <UNDEFINED> instruction: 0xffffffff
 80017f8:	ffffffff 			@ <UNDEFINED> instruction: 0xffffffff
 80017fc:	ffffffff 			@ <UNDEFINED> instruction: 0xffffffff
 8001800:	ffffffff 			@ <UNDEFINED> instruction: 0xffffffff
 8001804:	ffffffff 			@ <UNDEFINED> instruction: 0xffffffff
 8001808:	ffffffff 			@ <UNDEFINED> instruction: 0xffffffff
 800180c:	ffffffff 			@ <UNDEFINED> instruction: 0xffffffff
 8001810:	ffffffff 			@ <UNDEFINED> instruction: 0xffffffff
 8001814:	ffffffff 			@ <UNDEFINED> instruction: 0xffffffff
 8001818:	ffffffff 			@ <UNDEFINED> instruction: 0xffffffff
 800181c:	ffffffff 			@ <UNDEFINED> instruction: 0xffffffff
 8001820:	ffffffff 			@ <UNDEFINED> instruction: 0xffffffff
 8001824:	ffffffff 			@ <UNDEFINED> instruction: 0xffffffff
 8001828:	ffffffff 			@ <UNDEFINED> instruction: 0xffffffff
 800182c:	ffffffff 			@ <UNDEFINED> instruction: 0xffffffff
 8001830:	ffffffff 			@ <UNDEFINED> instruction: 0xffffffff
 8001834:	ffffffff 			@ <UNDEFINED> instruction: 0xffffffff
 8001838:	ffffffff 			@ <UNDEFINED> instruction: 0xffffffff
 800183c:	ffffffff 			@ <UNDEFINED> instruction: 0xffffffff
 8001840:	ffffffff 			@ <UNDEFINED> instruction: 0xffffffff
 8001844:	ffffffff 			@ <UNDEFINED> instruction: 0xffffffff
 8001848:	ffffffff 			@ <UNDEFINED> instruction: 0xffffffff
 800184c:	ffffffff 			@ <UNDEFINED> instruction: 0xffffffff
 8001850:	ffffffff 			@ <UNDEFINED> instruction: 0xffffffff
 8001854:	ffffffff 			@ <UNDEFINED> instruction: 0xffffffff
 8001858:	ffffffff 			@ <UNDEFINED> instruction: 0xffffffff
 800185c:	ffffffff 			@ <UNDEFINED> instruction: 0xffffffff
 8001860:	ffffffff 			@ <UNDEFINED> instruction: 0xffffffff
 8001864:	ffffffff 			@ <UNDEFINED> instruction: 0xffffffff
 8001868:	ffffffff 			@ <UNDEFINED> instruction: 0xffffffff
 800186c:	ffffffff 			@ <UNDEFINED> instruction: 0xffffffff
 8001870:	ffffffff 			@ <UNDEFINED> instruction: 0xffffffff
 8001874:	ffffffff 			@ <UNDEFINED> instruction: 0xffffffff
 8001878:	ffffffff 			@ <UNDEFINED> instruction: 0xffffffff
 800187c:	ffffffff 			@ <UNDEFINED> instruction: 0xffffffff
 8001880:	ffffffff 			@ <UNDEFINED> instruction: 0xffffffff
 8001884:	ffffffff 			@ <UNDEFINED> instruction: 0xffffffff
 8001888:	ffffffff 			@ <UNDEFINED> instruction: 0xffffffff
 800188c:	ffffffff 			@ <UNDEFINED> instruction: 0xffffffff
 8001890:	ffffffff 			@ <UNDEFINED> instruction: 0xffffffff
 8001894:	ffffffff 			@ <UNDEFINED> instruction: 0xffffffff
 8001898:	ffffffff 			@ <UNDEFINED> instruction: 0xffffffff
 800189c:	ffffffff 			@ <UNDEFINED> instruction: 0xffffffff
 80018a0:	ffffffff 			@ <UNDEFINED> instruction: 0xffffffff
 80018a4:	ffffffff 			@ <UNDEFINED> instruction: 0xffffffff
 80018a8:	ffffffff 			@ <UNDEFINED> instruction: 0xffffffff
 80018ac:	ffffffff 			@ <UNDEFINED> instruction: 0xffffffff
 80018b0:	ffffffff 			@ <UNDEFINED> instruction: 0xffffffff
 80018b4:	ffffffff 			@ <UNDEFINED> instruction: 0xffffffff
 80018b8:	ffffffff 			@ <UNDEFINED> instruction: 0xffffffff
 80018bc:	ffffffff 			@ <UNDEFINED> instruction: 0xffffffff
 80018c0:	ffffffff 			@ <UNDEFINED> instruction: 0xffffffff
 80018c4:	ffffffff 			@ <UNDEFINED> instruction: 0xffffffff
 80018c8:	ffffffff 			@ <UNDEFINED> instruction: 0xffffffff
 80018cc:	ffffffff 			@ <UNDEFINED> instruction: 0xffffffff
 80018d0:	ffffffff 			@ <UNDEFINED> instruction: 0xffffffff
 80018d4:	ffffffff 			@ <UNDEFINED> instruction: 0xffffffff
 80018d8:	ffffffff 			@ <UNDEFINED> instruction: 0xffffffff
 80018dc:	ffffffff 			@ <UNDEFINED> instruction: 0xffffffff
 80018e0:	ffffffff 			@ <UNDEFINED> instruction: 0xffffffff
 80018e4:	ffffffff 			@ <UNDEFINED> instruction: 0xffffffff
 80018e8:	ffffffff 			@ <UNDEFINED> instruction: 0xffffffff
 80018ec:	ffffffff 			@ <UNDEFINED> instruction: 0xffffffff
 80018f0:	ffffffff 			@ <UNDEFINED> instruction: 0xffffffff
 80018f4:	ffffffff 			@ <UNDEFINED> instruction: 0xffffffff
 80018f8:	ffffffff 			@ <UNDEFINED> instruction: 0xffffffff
 80018fc:	ffffffff 			@ <UNDEFINED> instruction: 0xffffffff
 8001900:	ffffffff 			@ <UNDEFINED> instruction: 0xffffffff
 8001904:	ffffffff 			@ <UNDEFINED> instruction: 0xffffffff
 8001908:	ffffffff 			@ <UNDEFINED> instruction: 0xffffffff
 800190c:	ffffffff 			@ <UNDEFINED> instruction: 0xffffffff
 8001910:	ffffffff 			@ <UNDEFINED> instruction: 0xffffffff
 8001914:	ffffffff 			@ <UNDEFINED> instruction: 0xffffffff
 8001918:	ffffffff 			@ <UNDEFINED> instruction: 0xffffffff
 800191c:	ffffffff 			@ <UNDEFINED> instruction: 0xffffffff
 8001920:	ffffffff 			@ <UNDEFINED> instruction: 0xffffffff
 8001924:	ffffffff 			@ <UNDEFINED> instruction: 0xffffffff
 8001928:	ffffffff 			@ <UNDEFINED> instruction: 0xffffffff
 800192c:	ffffffff 			@ <UNDEFINED> instruction: 0xffffffff
 8001930:	ffffffff 			@ <UNDEFINED> instruction: 0xffffffff
 8001934:	ffffffff 			@ <UNDEFINED> instruction: 0xffffffff
 8001938:	ffffffff 			@ <UNDEFINED> instruction: 0xffffffff
 800193c:	ffffffff 			@ <UNDEFINED> instruction: 0xffffffff
 8001940:	ffffffff 			@ <UNDEFINED> instruction: 0xffffffff
 8001944:	ffffffff 			@ <UNDEFINED> instruction: 0xffffffff
 8001948:	ffffffff 			@ <UNDEFINED> instruction: 0xffffffff
 800194c:	ffffffff 			@ <UNDEFINED> instruction: 0xffffffff
 8001950:	ffffffff 			@ <UNDEFINED> instruction: 0xffffffff
 8001954:	ffffffff 			@ <UNDEFINED> instruction: 0xffffffff
 8001958:	ffffffff 			@ <UNDEFINED> instruction: 0xffffffff
 800195c:	ffffffff 			@ <UNDEFINED> instruction: 0xffffffff
 8001960:	ffffffff 			@ <UNDEFINED> instruction: 0xffffffff
 8001964:	ffffffff 			@ <UNDEFINED> instruction: 0xffffffff
 8001968:	ffffffff 			@ <UNDEFINED> instruction: 0xffffffff
 800196c:	ffffffff 			@ <UNDEFINED> instruction: 0xffffffff
 8001970:	ffffffff 			@ <UNDEFINED> instruction: 0xffffffff
 8001974:	ffffffff 			@ <UNDEFINED> instruction: 0xffffffff
 8001978:	ffffffff 			@ <UNDEFINED> instruction: 0xffffffff
 800197c:	ffffffff 			@ <UNDEFINED> instruction: 0xffffffff
 8001980:	ffffffff 			@ <UNDEFINED> instruction: 0xffffffff
 8001984:	ffffffff 			@ <UNDEFINED> instruction: 0xffffffff
 8001988:	ffffffff 			@ <UNDEFINED> instruction: 0xffffffff
 800198c:	ffffffff 			@ <UNDEFINED> instruction: 0xffffffff
 8001990:	ffffffff 			@ <UNDEFINED> instruction: 0xffffffff
 8001994:	ffffffff 			@ <UNDEFINED> instruction: 0xffffffff
 8001998:	ffffffff 			@ <UNDEFINED> instruction: 0xffffffff
 800199c:	ffffffff 			@ <UNDEFINED> instruction: 0xffffffff
 80019a0:	ffffffff 			@ <UNDEFINED> instruction: 0xffffffff
 80019a4:	ffffffff 			@ <UNDEFINED> instruction: 0xffffffff
 80019a8:	ffffffff 			@ <UNDEFINED> instruction: 0xffffffff
 80019ac:	ffffffff 			@ <UNDEFINED> instruction: 0xffffffff
 80019b0:	ffffffff 			@ <UNDEFINED> instruction: 0xffffffff
 80019b4:	ffffffff 			@ <UNDEFINED> instruction: 0xffffffff
 80019b8:	ffffffff 			@ <UNDEFINED> instruction: 0xffffffff
 80019bc:	ffffffff 			@ <UNDEFINED> instruction: 0xffffffff
 80019c0:	ffffffff 			@ <UNDEFINED> instruction: 0xffffffff
 80019c4:	ffffffff 			@ <UNDEFINED> instruction: 0xffffffff
 80019c8:	ffffffff 			@ <UNDEFINED> instruction: 0xffffffff
 80019cc:	ffffffff 			@ <UNDEFINED> instruction: 0xffffffff
 80019d0:	ffffffff 			@ <UNDEFINED> instruction: 0xffffffff
 80019d4:	ffffffff 			@ <UNDEFINED> instruction: 0xffffffff
 80019d8:	ffffffff 			@ <UNDEFINED> instruction: 0xffffffff
 80019dc:	ffffffff 			@ <UNDEFINED> instruction: 0xffffffff
 80019e0:	ffffffff 			@ <UNDEFINED> instruction: 0xffffffff
 80019e4:	ffffffff 			@ <UNDEFINED> instruction: 0xffffffff
 80019e8:	ffffffff 			@ <UNDEFINED> instruction: 0xffffffff
 80019ec:	ffffffff 			@ <UNDEFINED> instruction: 0xffffffff
 80019f0:	ffffffff 			@ <UNDEFINED> instruction: 0xffffffff
 80019f4:	ffffffff 			@ <UNDEFINED> instruction: 0xffffffff
 80019f8:	ffffffff 			@ <UNDEFINED> instruction: 0xffffffff
 80019fc:	ffffffff 			@ <UNDEFINED> instruction: 0xffffffff
 8001a00:	ffffffff 			@ <UNDEFINED> instruction: 0xffffffff
 8001a04:	ffffffff 			@ <UNDEFINED> instruction: 0xffffffff
 8001a08:	ffffffff 			@ <UNDEFINED> instruction: 0xffffffff
 8001a0c:	ffffffff 			@ <UNDEFINED> instruction: 0xffffffff
 8001a10:	ffffffff 			@ <UNDEFINED> instruction: 0xffffffff
 8001a14:	ffffffff 			@ <UNDEFINED> instruction: 0xffffffff
 8001a18:	ffffffff 			@ <UNDEFINED> instruction: 0xffffffff
 8001a1c:	ffffffff 			@ <UNDEFINED> instruction: 0xffffffff
 8001a20:	ffffffff 			@ <UNDEFINED> instruction: 0xffffffff
 8001a24:	ffffffff 			@ <UNDEFINED> instruction: 0xffffffff
 8001a28:	ffffffff 			@ <UNDEFINED> instruction: 0xffffffff
 8001a2c:	ffffffff 			@ <UNDEFINED> instruction: 0xffffffff
 8001a30:	ffffffff 			@ <UNDEFINED> instruction: 0xffffffff
 8001a34:	ffffffff 			@ <UNDEFINED> instruction: 0xffffffff
 8001a38:	ffffffff 			@ <UNDEFINED> instruction: 0xffffffff
 8001a3c:	ffffffff 			@ <UNDEFINED> instruction: 0xffffffff
 8001a40:	ffffffff 			@ <UNDEFINED> instruction: 0xffffffff
 8001a44:	ffffffff 			@ <UNDEFINED> instruction: 0xffffffff
 8001a48:	ffffffff 			@ <UNDEFINED> instruction: 0xffffffff
 8001a4c:	ffffffff 			@ <UNDEFINED> instruction: 0xffffffff
 8001a50:	ffffffff 			@ <UNDEFINED> instruction: 0xffffffff
 8001a54:	ffffffff 			@ <UNDEFINED> instruction: 0xffffffff
 8001a58:	ffffffff 			@ <UNDEFINED> instruction: 0xffffffff
 8001a5c:	ffffffff 			@ <UNDEFINED> instruction: 0xffffffff
 8001a60:	ffffffff 			@ <UNDEFINED> instruction: 0xffffffff
 8001a64:	ffffffff 			@ <UNDEFINED> instruction: 0xffffffff
 8001a68:	ffffffff 			@ <UNDEFINED> instruction: 0xffffffff
 8001a6c:	ffffffff 			@ <UNDEFINED> instruction: 0xffffffff
 8001a70:	ffffffff 			@ <UNDEFINED> instruction: 0xffffffff
 8001a74:	ffffffff 			@ <UNDEFINED> instruction: 0xffffffff
 8001a78:	ffffffff 			@ <UNDEFINED> instruction: 0xffffffff
 8001a7c:	ffffffff 			@ <UNDEFINED> instruction: 0xffffffff
 8001a80:	ffffffff 			@ <UNDEFINED> instruction: 0xffffffff
 8001a84:	ffffffff 			@ <UNDEFINED> instruction: 0xffffffff
 8001a88:	ffffffff 			@ <UNDEFINED> instruction: 0xffffffff
 8001a8c:	ffffffff 			@ <UNDEFINED> instruction: 0xffffffff
 8001a90:	ffffffff 			@ <UNDEFINED> instruction: 0xffffffff
 8001a94:	ffffffff 			@ <UNDEFINED> instruction: 0xffffffff
 8001a98:	ffffffff 			@ <UNDEFINED> instruction: 0xffffffff
 8001a9c:	ffffffff 			@ <UNDEFINED> instruction: 0xffffffff
 8001aa0:	ffffffff 			@ <UNDEFINED> instruction: 0xffffffff
 8001aa4:	ffffffff 			@ <UNDEFINED> instruction: 0xffffffff
 8001aa8:	ffffffff 			@ <UNDEFINED> instruction: 0xffffffff
 8001aac:	ffffffff 			@ <UNDEFINED> instruction: 0xffffffff
 8001ab0:	ffffffff 			@ <UNDEFINED> instruction: 0xffffffff
 8001ab4:	ffffffff 			@ <UNDEFINED> instruction: 0xffffffff
 8001ab8:	ffffffff 			@ <UNDEFINED> instruction: 0xffffffff
 8001abc:	ffffffff 			@ <UNDEFINED> instruction: 0xffffffff
 8001ac0:	ffffffff 			@ <UNDEFINED> instruction: 0xffffffff
 8001ac4:	ffffffff 			@ <UNDEFINED> instruction: 0xffffffff
 8001ac8:	ffffffff 			@ <UNDEFINED> instruction: 0xffffffff
 8001acc:	ffffffff 			@ <UNDEFINED> instruction: 0xffffffff
 8001ad0:	ffffffff 			@ <UNDEFINED> instruction: 0xffffffff
 8001ad4:	ffffffff 			@ <UNDEFINED> instruction: 0xffffffff
 8001ad8:	ffffffff 			@ <UNDEFINED> instruction: 0xffffffff
 8001adc:	ffffffff 			@ <UNDEFINED> instruction: 0xffffffff
 8001ae0:	ffffffff 			@ <UNDEFINED> instruction: 0xffffffff
 8001ae4:	ffffffff 			@ <UNDEFINED> instruction: 0xffffffff
 8001ae8:	ffffffff 			@ <UNDEFINED> instruction: 0xffffffff
 8001aec:	ffffffff 			@ <UNDEFINED> instruction: 0xffffffff
 8001af0:	ffffffff 			@ <UNDEFINED> instruction: 0xffffffff
 8001af4:	ffffffff 			@ <UNDEFINED> instruction: 0xffffffff
 8001af8:	ffffffff 			@ <UNDEFINED> instruction: 0xffffffff
 8001afc:	ffffffff 			@ <UNDEFINED> instruction: 0xffffffff
 8001b00:	ffffffff 			@ <UNDEFINED> instruction: 0xffffffff
 8001b04:	ffffffff 			@ <UNDEFINED> instruction: 0xffffffff
 8001b08:	ffffffff 			@ <UNDEFINED> instruction: 0xffffffff
 8001b0c:	ffffffff 			@ <UNDEFINED> instruction: 0xffffffff
 8001b10:	ffffffff 			@ <UNDEFINED> instruction: 0xffffffff
 8001b14:	ffffffff 			@ <UNDEFINED> instruction: 0xffffffff
 8001b18:	ffffffff 			@ <UNDEFINED> instruction: 0xffffffff
 8001b1c:	ffffffff 			@ <UNDEFINED> instruction: 0xffffffff
 8001b20:	ffffffff 			@ <UNDEFINED> instruction: 0xffffffff
 8001b24:	ffffffff 			@ <UNDEFINED> instruction: 0xffffffff
 8001b28:	ffffffff 			@ <UNDEFINED> instruction: 0xffffffff
 8001b2c:	ffffffff 			@ <UNDEFINED> instruction: 0xffffffff
 8001b30:	ffffffff 			@ <UNDEFINED> instruction: 0xffffffff
 8001b34:	ffffffff 			@ <UNDEFINED> instruction: 0xffffffff
 8001b38:	ffffffff 			@ <UNDEFINED> instruction: 0xffffffff
 8001b3c:	ffffffff 			@ <UNDEFINED> instruction: 0xffffffff
 8001b40:	ffffffff 			@ <UNDEFINED> instruction: 0xffffffff
 8001b44:	ffffffff 			@ <UNDEFINED> instruction: 0xffffffff
 8001b48:	ffffffff 			@ <UNDEFINED> instruction: 0xffffffff
 8001b4c:	ffffffff 			@ <UNDEFINED> instruction: 0xffffffff
 8001b50:	ffffffff 			@ <UNDEFINED> instruction: 0xffffffff
 8001b54:	ffffffff 			@ <UNDEFINED> instruction: 0xffffffff
 8001b58:	ffffffff 			@ <UNDEFINED> instruction: 0xffffffff
 8001b5c:	ffffffff 			@ <UNDEFINED> instruction: 0xffffffff
 8001b60:	ffffffff 			@ <UNDEFINED> instruction: 0xffffffff
 8001b64:	ffffffff 			@ <UNDEFINED> instruction: 0xffffffff
 8001b68:	ffffffff 			@ <UNDEFINED> instruction: 0xffffffff
 8001b6c:	ffffffff 			@ <UNDEFINED> instruction: 0xffffffff
 8001b70:	ffffffff 			@ <UNDEFINED> instruction: 0xffffffff
 8001b74:	ffffffff 			@ <UNDEFINED> instruction: 0xffffffff
 8001b78:	ffffffff 			@ <UNDEFINED> instruction: 0xffffffff
 8001b7c:	ffffffff 			@ <UNDEFINED> instruction: 0xffffffff
 8001b80:	ffffffff 			@ <UNDEFINED> instruction: 0xffffffff
 8001b84:	ffffffff 			@ <UNDEFINED> instruction: 0xffffffff
 8001b88:	ffffffff 			@ <UNDEFINED> instruction: 0xffffffff
 8001b8c:	ffffffff 			@ <UNDEFINED> instruction: 0xffffffff
 8001b90:	ffffffff 			@ <UNDEFINED> instruction: 0xffffffff
 8001b94:	ffffffff 			@ <UNDEFINED> instruction: 0xffffffff
 8001b98:	ffffffff 			@ <UNDEFINED> instruction: 0xffffffff
 8001b9c:	ffffffff 			@ <UNDEFINED> instruction: 0xffffffff
 8001ba0:	ffffffff 			@ <UNDEFINED> instruction: 0xffffffff
 8001ba4:	ffffffff 			@ <UNDEFINED> instruction: 0xffffffff
 8001ba8:	ffffffff 			@ <UNDEFINED> instruction: 0xffffffff
 8001bac:	ffffffff 			@ <UNDEFINED> instruction: 0xffffffff
 8001bb0:	ffffffff 			@ <UNDEFINED> instruction: 0xffffffff
 8001bb4:	ffffffff 			@ <UNDEFINED> instruction: 0xffffffff
 8001bb8:	ffffffff 			@ <UNDEFINED> instruction: 0xffffffff
 8001bbc:	ffffffff 			@ <UNDEFINED> instruction: 0xffffffff
 8001bc0:	ffffffff 			@ <UNDEFINED> instruction: 0xffffffff
 8001bc4:	ffffffff 			@ <UNDEFINED> instruction: 0xffffffff
 8001bc8:	ffffffff 			@ <UNDEFINED> instruction: 0xffffffff
 8001bcc:	ffffffff 			@ <UNDEFINED> instruction: 0xffffffff
 8001bd0:	ffffffff 			@ <UNDEFINED> instruction: 0xffffffff
 8001bd4:	ffffffff 			@ <UNDEFINED> instruction: 0xffffffff
 8001bd8:	ffffffff 			@ <UNDEFINED> instruction: 0xffffffff
 8001bdc:	ffffffff 			@ <UNDEFINED> instruction: 0xffffffff
 8001be0:	ffffffff 			@ <UNDEFINED> instruction: 0xffffffff
 8001be4:	ffffffff 			@ <UNDEFINED> instruction: 0xffffffff
 8001be8:	ffffffff 			@ <UNDEFINED> instruction: 0xffffffff
 8001bec:	ffffffff 			@ <UNDEFINED> instruction: 0xffffffff
 8001bf0:	ffffffff 			@ <UNDEFINED> instruction: 0xffffffff
 8001bf4:	ffffffff 			@ <UNDEFINED> instruction: 0xffffffff
 8001bf8:	ffffffff 			@ <UNDEFINED> instruction: 0xffffffff
 8001bfc:	ffffffff 			@ <UNDEFINED> instruction: 0xffffffff
 8001c00:	ffffffff 			@ <UNDEFINED> instruction: 0xffffffff
 8001c04:	ffffffff 			@ <UNDEFINED> instruction: 0xffffffff
 8001c08:	ffffffff 			@ <UNDEFINED> instruction: 0xffffffff
 8001c0c:	ffffffff 			@ <UNDEFINED> instruction: 0xffffffff
 8001c10:	ffffffff 			@ <UNDEFINED> instruction: 0xffffffff
 8001c14:	ffffffff 			@ <UNDEFINED> instruction: 0xffffffff
 8001c18:	ffffffff 			@ <UNDEFINED> instruction: 0xffffffff
 8001c1c:	ffffffff 			@ <UNDEFINED> instruction: 0xffffffff
 8001c20:	ffffffff 			@ <UNDEFINED> instruction: 0xffffffff
 8001c24:	ffffffff 			@ <UNDEFINED> instruction: 0xffffffff
 8001c28:	ffffffff 			@ <UNDEFINED> instruction: 0xffffffff
 8001c2c:	ffffffff 			@ <UNDEFINED> instruction: 0xffffffff
 8001c30:	ffffffff 			@ <UNDEFINED> instruction: 0xffffffff
 8001c34:	ffffffff 			@ <UNDEFINED> instruction: 0xffffffff
 8001c38:	ffffffff 			@ <UNDEFINED> instruction: 0xffffffff
 8001c3c:	ffffffff 			@ <UNDEFINED> instruction: 0xffffffff
 8001c40:	ffffffff 			@ <UNDEFINED> instruction: 0xffffffff
 8001c44:	ffffffff 			@ <UNDEFINED> instruction: 0xffffffff
 8001c48:	ffffffff 			@ <UNDEFINED> instruction: 0xffffffff
 8001c4c:	ffffffff 			@ <UNDEFINED> instruction: 0xffffffff
 8001c50:	ffffffff 			@ <UNDEFINED> instruction: 0xffffffff
 8001c54:	ffffffff 			@ <UNDEFINED> instruction: 0xffffffff
 8001c58:	ffffffff 			@ <UNDEFINED> instruction: 0xffffffff
 8001c5c:	ffffffff 			@ <UNDEFINED> instruction: 0xffffffff
 8001c60:	ffffffff 			@ <UNDEFINED> instruction: 0xffffffff
 8001c64:	ffffffff 			@ <UNDEFINED> instruction: 0xffffffff
 8001c68:	ffffffff 			@ <UNDEFINED> instruction: 0xffffffff
 8001c6c:	ffffffff 			@ <UNDEFINED> instruction: 0xffffffff
 8001c70:	ffffffff 			@ <UNDEFINED> instruction: 0xffffffff
 8001c74:	ffffffff 			@ <UNDEFINED> instruction: 0xffffffff
 8001c78:	ffffffff 			@ <UNDEFINED> instruction: 0xffffffff
 8001c7c:	ffffffff 			@ <UNDEFINED> instruction: 0xffffffff
 8001c80:	ffffffff 			@ <UNDEFINED> instruction: 0xffffffff
 8001c84:	ffffffff 			@ <UNDEFINED> instruction: 0xffffffff
 8001c88:	ffffffff 			@ <UNDEFINED> instruction: 0xffffffff
 8001c8c:	ffffffff 			@ <UNDEFINED> instruction: 0xffffffff
 8001c90:	ffffffff 			@ <UNDEFINED> instruction: 0xffffffff
 8001c94:	ffffffff 			@ <UNDEFINED> instruction: 0xffffffff
 8001c98:	ffffffff 			@ <UNDEFINED> instruction: 0xffffffff
 8001c9c:	ffffffff 			@ <UNDEFINED> instruction: 0xffffffff
 8001ca0:	ffffffff 			@ <UNDEFINED> instruction: 0xffffffff
 8001ca4:	ffffffff 			@ <UNDEFINED> instruction: 0xffffffff
 8001ca8:	ffffffff 			@ <UNDEFINED> instruction: 0xffffffff
 8001cac:	ffffffff 			@ <UNDEFINED> instruction: 0xffffffff
 8001cb0:	ffffffff 			@ <UNDEFINED> instruction: 0xffffffff
 8001cb4:	ffffffff 			@ <UNDEFINED> instruction: 0xffffffff
 8001cb8:	ffffffff 			@ <UNDEFINED> instruction: 0xffffffff
 8001cbc:	ffffffff 			@ <UNDEFINED> instruction: 0xffffffff
 8001cc0:	ffffffff 			@ <UNDEFINED> instruction: 0xffffffff
 8001cc4:	ffffffff 			@ <UNDEFINED> instruction: 0xffffffff
 8001cc8:	ffffffff 			@ <UNDEFINED> instruction: 0xffffffff
 8001ccc:	ffffffff 			@ <UNDEFINED> instruction: 0xffffffff
 8001cd0:	ffffffff 			@ <UNDEFINED> instruction: 0xffffffff
 8001cd4:	ffffffff 			@ <UNDEFINED> instruction: 0xffffffff
 8001cd8:	ffffffff 			@ <UNDEFINED> instruction: 0xffffffff
 8001cdc:	ffffffff 			@ <UNDEFINED> instruction: 0xffffffff
 8001ce0:	ffffffff 			@ <UNDEFINED> instruction: 0xffffffff
 8001ce4:	ffffffff 			@ <UNDEFINED> instruction: 0xffffffff
 8001ce8:	ffffffff 			@ <UNDEFINED> instruction: 0xffffffff
 8001cec:	ffffffff 			@ <UNDEFINED> instruction: 0xffffffff
 8001cf0:	ffffffff 			@ <UNDEFINED> instruction: 0xffffffff
 8001cf4:	ffffffff 			@ <UNDEFINED> instruction: 0xffffffff
 8001cf8:	ffffffff 			@ <UNDEFINED> instruction: 0xffffffff
 8001cfc:	ffffffff 			@ <UNDEFINED> instruction: 0xffffffff
 8001d00:	ffffffff 			@ <UNDEFINED> instruction: 0xffffffff
 8001d04:	ffffffff 			@ <UNDEFINED> instruction: 0xffffffff
 8001d08:	ffffffff 			@ <UNDEFINED> instruction: 0xffffffff
 8001d0c:	ffffffff 			@ <UNDEFINED> instruction: 0xffffffff
 8001d10:	ffffffff 			@ <UNDEFINED> instruction: 0xffffffff
 8001d14:	ffffffff 			@ <UNDEFINED> instruction: 0xffffffff
 8001d18:	ffffffff 			@ <UNDEFINED> instruction: 0xffffffff
 8001d1c:	ffffffff 			@ <UNDEFINED> instruction: 0xffffffff
 8001d20:	ffffffff 			@ <UNDEFINED> instruction: 0xffffffff
 8001d24:	ffffffff 			@ <UNDEFINED> instruction: 0xffffffff
 8001d28:	ffffffff 			@ <UNDEFINED> instruction: 0xffffffff
 8001d2c:	ffffffff 			@ <UNDEFINED> instruction: 0xffffffff
 8001d30:	ffffffff 			@ <UNDEFINED> instruction: 0xffffffff
 8001d34:	ffffffff 			@ <UNDEFINED> instruction: 0xffffffff
 8001d38:	ffffffff 			@ <UNDEFINED> instruction: 0xffffffff
 8001d3c:	ffffffff 			@ <UNDEFINED> instruction: 0xffffffff
 8001d40:	ffffffff 			@ <UNDEFINED> instruction: 0xffffffff
 8001d44:	ffffffff 			@ <UNDEFINED> instruction: 0xffffffff
 8001d48:	ffffffff 			@ <UNDEFINED> instruction: 0xffffffff
 8001d4c:	ffffffff 			@ <UNDEFINED> instruction: 0xffffffff
 8001d50:	ffffffff 			@ <UNDEFINED> instruction: 0xffffffff
 8001d54:	ffffffff 			@ <UNDEFINED> instruction: 0xffffffff
 8001d58:	ffffffff 			@ <UNDEFINED> instruction: 0xffffffff
 8001d5c:	ffffffff 			@ <UNDEFINED> instruction: 0xffffffff
 8001d60:	ffffffff 			@ <UNDEFINED> instruction: 0xffffffff
 8001d64:	ffffffff 			@ <UNDEFINED> instruction: 0xffffffff
 8001d68:	ffffffff 			@ <UNDEFINED> instruction: 0xffffffff
 8001d6c:	ffffffff 			@ <UNDEFINED> instruction: 0xffffffff
 8001d70:	ffffffff 			@ <UNDEFINED> instruction: 0xffffffff
 8001d74:	ffffffff 			@ <UNDEFINED> instruction: 0xffffffff
 8001d78:	ffffffff 			@ <UNDEFINED> instruction: 0xffffffff
 8001d7c:	ffffffff 			@ <UNDEFINED> instruction: 0xffffffff
 8001d80:	ffffffff 			@ <UNDEFINED> instruction: 0xffffffff
 8001d84:	ffffffff 			@ <UNDEFINED> instruction: 0xffffffff
 8001d88:	ffffffff 			@ <UNDEFINED> instruction: 0xffffffff
 8001d8c:	ffffffff 			@ <UNDEFINED> instruction: 0xffffffff
 8001d90:	ffffffff 			@ <UNDEFINED> instruction: 0xffffffff
 8001d94:	ffffffff 			@ <UNDEFINED> instruction: 0xffffffff
 8001d98:	ffffffff 			@ <UNDEFINED> instruction: 0xffffffff
 8001d9c:	ffffffff 			@ <UNDEFINED> instruction: 0xffffffff
 8001da0:	ffffffff 			@ <UNDEFINED> instruction: 0xffffffff
 8001da4:	ffffffff 			@ <UNDEFINED> instruction: 0xffffffff
 8001da8:	ffffffff 			@ <UNDEFINED> instruction: 0xffffffff
 8001dac:	ffffffff 			@ <UNDEFINED> instruction: 0xffffffff
 8001db0:	ffffffff 			@ <UNDEFINED> instruction: 0xffffffff
 8001db4:	ffffffff 			@ <UNDEFINED> instruction: 0xffffffff
 8001db8:	ffffffff 			@ <UNDEFINED> instruction: 0xffffffff
 8001dbc:	ffffffff 			@ <UNDEFINED> instruction: 0xffffffff
 8001dc0:	ffffffff 			@ <UNDEFINED> instruction: 0xffffffff
 8001dc4:	ffffffff 			@ <UNDEFINED> instruction: 0xffffffff
 8001dc8:	ffffffff 			@ <UNDEFINED> instruction: 0xffffffff
 8001dcc:	ffffffff 			@ <UNDEFINED> instruction: 0xffffffff
 8001dd0:	ffffffff 			@ <UNDEFINED> instruction: 0xffffffff
 8001dd4:	ffffffff 			@ <UNDEFINED> instruction: 0xffffffff
 8001dd8:	ffffffff 			@ <UNDEFINED> instruction: 0xffffffff
 8001ddc:	ffffffff 			@ <UNDEFINED> instruction: 0xffffffff
 8001de0:	ffffffff 			@ <UNDEFINED> instruction: 0xffffffff
 8001de4:	ffffffff 			@ <UNDEFINED> instruction: 0xffffffff
 8001de8:	ffffffff 			@ <UNDEFINED> instruction: 0xffffffff
 8001dec:	ffffffff 			@ <UNDEFINED> instruction: 0xffffffff
 8001df0:	ffffffff 			@ <UNDEFINED> instruction: 0xffffffff
 8001df4:	ffffffff 			@ <UNDEFINED> instruction: 0xffffffff
 8001df8:	ffffffff 			@ <UNDEFINED> instruction: 0xffffffff
 8001dfc:	ffffffff 			@ <UNDEFINED> instruction: 0xffffffff
 8001e00:	ffffffff 			@ <UNDEFINED> instruction: 0xffffffff
 8001e04:	ffffffff 			@ <UNDEFINED> instruction: 0xffffffff
 8001e08:	ffffffff 			@ <UNDEFINED> instruction: 0xffffffff
 8001e0c:	ffffffff 			@ <UNDEFINED> instruction: 0xffffffff
 8001e10:	ffffffff 			@ <UNDEFINED> instruction: 0xffffffff
 8001e14:	ffffffff 			@ <UNDEFINED> instruction: 0xffffffff
 8001e18:	ffffffff 			@ <UNDEFINED> instruction: 0xffffffff
 8001e1c:	ffffffff 			@ <UNDEFINED> instruction: 0xffffffff
 8001e20:	ffffffff 			@ <UNDEFINED> instruction: 0xffffffff
 8001e24:	ffffffff 			@ <UNDEFINED> instruction: 0xffffffff
 8001e28:	ffffffff 			@ <UNDEFINED> instruction: 0xffffffff
 8001e2c:	ffffffff 			@ <UNDEFINED> instruction: 0xffffffff
 8001e30:	ffffffff 			@ <UNDEFINED> instruction: 0xffffffff
 8001e34:	ffffffff 			@ <UNDEFINED> instruction: 0xffffffff
 8001e38:	ffffffff 			@ <UNDEFINED> instruction: 0xffffffff
 8001e3c:	ffffffff 			@ <UNDEFINED> instruction: 0xffffffff
 8001e40:	ffffffff 			@ <UNDEFINED> instruction: 0xffffffff
 8001e44:	ffffffff 			@ <UNDEFINED> instruction: 0xffffffff
 8001e48:	ffffffff 			@ <UNDEFINED> instruction: 0xffffffff
 8001e4c:	ffffffff 			@ <UNDEFINED> instruction: 0xffffffff
 8001e50:	ffffffff 			@ <UNDEFINED> instruction: 0xffffffff
 8001e54:	ffffffff 			@ <UNDEFINED> instruction: 0xffffffff
 8001e58:	ffffffff 			@ <UNDEFINED> instruction: 0xffffffff
 8001e5c:	ffffffff 			@ <UNDEFINED> instruction: 0xffffffff
 8001e60:	ffffffff 			@ <UNDEFINED> instruction: 0xffffffff
 8001e64:	ffffffff 			@ <UNDEFINED> instruction: 0xffffffff
 8001e68:	ffffffff 			@ <UNDEFINED> instruction: 0xffffffff
 8001e6c:	ffffffff 			@ <UNDEFINED> instruction: 0xffffffff
 8001e70:	ffffffff 			@ <UNDEFINED> instruction: 0xffffffff
 8001e74:	ffffffff 			@ <UNDEFINED> instruction: 0xffffffff
 8001e78:	ffffffff 			@ <UNDEFINED> instruction: 0xffffffff
 8001e7c:	ffffffff 			@ <UNDEFINED> instruction: 0xffffffff
 8001e80:	ffffffff 			@ <UNDEFINED> instruction: 0xffffffff
 8001e84:	ffffffff 			@ <UNDEFINED> instruction: 0xffffffff
 8001e88:	ffffffff 			@ <UNDEFINED> instruction: 0xffffffff
 8001e8c:	ffffffff 			@ <UNDEFINED> instruction: 0xffffffff
 8001e90:	ffffffff 			@ <UNDEFINED> instruction: 0xffffffff
 8001e94:	ffffffff 			@ <UNDEFINED> instruction: 0xffffffff
 8001e98:	ffffffff 			@ <UNDEFINED> instruction: 0xffffffff
 8001e9c:	ffffffff 			@ <UNDEFINED> instruction: 0xffffffff
 8001ea0:	ffffffff 			@ <UNDEFINED> instruction: 0xffffffff
 8001ea4:	ffffffff 			@ <UNDEFINED> instruction: 0xffffffff
 8001ea8:	ffffffff 			@ <UNDEFINED> instruction: 0xffffffff
 8001eac:	ffffffff 			@ <UNDEFINED> instruction: 0xffffffff
 8001eb0:	ffffffff 			@ <UNDEFINED> instruction: 0xffffffff
 8001eb4:	ffffffff 			@ <UNDEFINED> instruction: 0xffffffff
 8001eb8:	ffffffff 			@ <UNDEFINED> instruction: 0xffffffff
 8001ebc:	ffffffff 			@ <UNDEFINED> instruction: 0xffffffff
 8001ec0:	ffffffff 			@ <UNDEFINED> instruction: 0xffffffff
 8001ec4:	ffffffff 			@ <UNDEFINED> instruction: 0xffffffff
 8001ec8:	ffffffff 			@ <UNDEFINED> instruction: 0xffffffff
 8001ecc:	ffffffff 			@ <UNDEFINED> instruction: 0xffffffff
 8001ed0:	ffffffff 			@ <UNDEFINED> instruction: 0xffffffff
 8001ed4:	ffffffff 			@ <UNDEFINED> instruction: 0xffffffff
 8001ed8:	ffffffff 			@ <UNDEFINED> instruction: 0xffffffff
 8001edc:	ffffffff 			@ <UNDEFINED> instruction: 0xffffffff
 8001ee0:	ffffffff 			@ <UNDEFINED> instruction: 0xffffffff
 8001ee4:	ffffffff 			@ <UNDEFINED> instruction: 0xffffffff
 8001ee8:	ffffffff 			@ <UNDEFINED> instruction: 0xffffffff
 8001eec:	ffffffff 			@ <UNDEFINED> instruction: 0xffffffff
 8001ef0:	ffffffff 			@ <UNDEFINED> instruction: 0xffffffff
 8001ef4:	ffffffff 			@ <UNDEFINED> instruction: 0xffffffff
 8001ef8:	ffffffff 			@ <UNDEFINED> instruction: 0xffffffff
 8001efc:	ffffffff 			@ <UNDEFINED> instruction: 0xffffffff
 8001f00:	ffffffff 			@ <UNDEFINED> instruction: 0xffffffff
 8001f04:	ffffffff 			@ <UNDEFINED> instruction: 0xffffffff
 8001f08:	ffffffff 			@ <UNDEFINED> instruction: 0xffffffff
 8001f0c:	ffffffff 			@ <UNDEFINED> instruction: 0xffffffff
 8001f10:	ffffffff 			@ <UNDEFINED> instruction: 0xffffffff
 8001f14:	ffffffff 			@ <UNDEFINED> instruction: 0xffffffff
 8001f18:	ffffffff 			@ <UNDEFINED> instruction: 0xffffffff
 8001f1c:	ffffffff 			@ <UNDEFINED> instruction: 0xffffffff
 8001f20:	ffffffff 			@ <UNDEFINED> instruction: 0xffffffff
 8001f24:	ffffffff 			@ <UNDEFINED> instruction: 0xffffffff
 8001f28:	ffffffff 			@ <UNDEFINED> instruction: 0xffffffff
 8001f2c:	ffffffff 			@ <UNDEFINED> instruction: 0xffffffff
 8001f30:	ffffffff 			@ <UNDEFINED> instruction: 0xffffffff
 8001f34:	ffffffff 			@ <UNDEFINED> instruction: 0xffffffff
 8001f38:	ffffffff 			@ <UNDEFINED> instruction: 0xffffffff
 8001f3c:	ffffffff 			@ <UNDEFINED> instruction: 0xffffffff
 8001f40:	ffffffff 			@ <UNDEFINED> instruction: 0xffffffff
 8001f44:	ffffffff 			@ <UNDEFINED> instruction: 0xffffffff
 8001f48:	ffffffff 			@ <UNDEFINED> instruction: 0xffffffff
 8001f4c:	ffffffff 			@ <UNDEFINED> instruction: 0xffffffff
 8001f50:	ffffffff 			@ <UNDEFINED> instruction: 0xffffffff
 8001f54:	ffffffff 			@ <UNDEFINED> instruction: 0xffffffff
 8001f58:	ffffffff 			@ <UNDEFINED> instruction: 0xffffffff
 8001f5c:	ffffffff 			@ <UNDEFINED> instruction: 0xffffffff
 8001f60:	ffffffff 			@ <UNDEFINED> instruction: 0xffffffff
 8001f64:	ffffffff 			@ <UNDEFINED> instruction: 0xffffffff
 8001f68:	ffffffff 			@ <UNDEFINED> instruction: 0xffffffff
 8001f6c:	ffffffff 			@ <UNDEFINED> instruction: 0xffffffff
 8001f70:	ffffffff 			@ <UNDEFINED> instruction: 0xffffffff
 8001f74:	ffffffff 			@ <UNDEFINED> instruction: 0xffffffff
 8001f78:	ffffffff 			@ <UNDEFINED> instruction: 0xffffffff
 8001f7c:	ffffffff 			@ <UNDEFINED> instruction: 0xffffffff
 8001f80:	ffffffff 			@ <UNDEFINED> instruction: 0xffffffff
 8001f84:	ffffffff 			@ <UNDEFINED> instruction: 0xffffffff
 8001f88:	ffffffff 			@ <UNDEFINED> instruction: 0xffffffff
 8001f8c:	ffffffff 			@ <UNDEFINED> instruction: 0xffffffff
 8001f90:	ffffffff 			@ <UNDEFINED> instruction: 0xffffffff
 8001f94:	ffffffff 			@ <UNDEFINED> instruction: 0xffffffff
 8001f98:	ffffffff 			@ <UNDEFINED> instruction: 0xffffffff
 8001f9c:	ffffffff 			@ <UNDEFINED> instruction: 0xffffffff
 8001fa0:	ffffffff 			@ <UNDEFINED> instruction: 0xffffffff
 8001fa4:	ffffffff 			@ <UNDEFINED> instruction: 0xffffffff
 8001fa8:	ffffffff 			@ <UNDEFINED> instruction: 0xffffffff
 8001fac:	ffffffff 			@ <UNDEFINED> instruction: 0xffffffff
 8001fb0:	ffffffff 			@ <UNDEFINED> instruction: 0xffffffff
 8001fb4:	ffffffff 			@ <UNDEFINED> instruction: 0xffffffff
 8001fb8:	ffffffff 			@ <UNDEFINED> instruction: 0xffffffff
 8001fbc:	ffffffff 			@ <UNDEFINED> instruction: 0xffffffff
 8001fc0:	ffffffff 			@ <UNDEFINED> instruction: 0xffffffff
 8001fc4:	ffffffff 			@ <UNDEFINED> instruction: 0xffffffff
 8001fc8:	ffffffff 			@ <UNDEFINED> instruction: 0xffffffff
 8001fcc:	ffffffff 			@ <UNDEFINED> instruction: 0xffffffff
 8001fd0:	ffffffff 			@ <UNDEFINED> instruction: 0xffffffff
 8001fd4:	ffffffff 			@ <UNDEFINED> instruction: 0xffffffff
 8001fd8:	ffffffff 			@ <UNDEFINED> instruction: 0xffffffff
 8001fdc:	ffffffff 			@ <UNDEFINED> instruction: 0xffffffff
 8001fe0:	ffffffff 			@ <UNDEFINED> instruction: 0xffffffff
 8001fe4:	ffffffff 			@ <UNDEFINED> instruction: 0xffffffff
 8001fe8:	ffffffff 			@ <UNDEFINED> instruction: 0xffffffff
 8001fec:	ffffffff 			@ <UNDEFINED> instruction: 0xffffffff
 8001ff0:	ffffffff 			@ <UNDEFINED> instruction: 0xffffffff
 8001ff4:	ffffffff 			@ <UNDEFINED> instruction: 0xffffffff
 8001ff8:	ffffffff 			@ <UNDEFINED> instruction: 0xffffffff
 8001ffc:	ffffffff 			@ <UNDEFINED> instruction: 0xffffffff
 8002000:	ffffffff 			@ <UNDEFINED> instruction: 0xffffffff
 8002004:	ffffffff 			@ <UNDEFINED> instruction: 0xffffffff
 8002008:	ffffffff 			@ <UNDEFINED> instruction: 0xffffffff
 800200c:	ffffffff 			@ <UNDEFINED> instruction: 0xffffffff
 8002010:	ffffffff 			@ <UNDEFINED> instruction: 0xffffffff
 8002014:	ffffffff 			@ <UNDEFINED> instruction: 0xffffffff
 8002018:	ffffffff 			@ <UNDEFINED> instruction: 0xffffffff
 800201c:	ffffffff 			@ <UNDEFINED> instruction: 0xffffffff
 8002020:	ffffffff 			@ <UNDEFINED> instruction: 0xffffffff
 8002024:	ffffffff 			@ <UNDEFINED> instruction: 0xffffffff
 8002028:	ffffffff 			@ <UNDEFINED> instruction: 0xffffffff
 800202c:	ffffffff 			@ <UNDEFINED> instruction: 0xffffffff
 8002030:	ffffffff 			@ <UNDEFINED> instruction: 0xffffffff
 8002034:	ffffffff 			@ <UNDEFINED> instruction: 0xffffffff
 8002038:	ffffffff 			@ <UNDEFINED> instruction: 0xffffffff
 800203c:	ffffffff 			@ <UNDEFINED> instruction: 0xffffffff
 8002040:	ffffffff 			@ <UNDEFINED> instruction: 0xffffffff
 8002044:	ffffffff 			@ <UNDEFINED> instruction: 0xffffffff
 8002048:	ffffffff 			@ <UNDEFINED> instruction: 0xffffffff
 800204c:	ffffffff 			@ <UNDEFINED> instruction: 0xffffffff
 8002050:	ffffffff 			@ <UNDEFINED> instruction: 0xffffffff
 8002054:	ffffffff 			@ <UNDEFINED> instruction: 0xffffffff
 8002058:	ffffffff 			@ <UNDEFINED> instruction: 0xffffffff
 800205c:	ffffffff 			@ <UNDEFINED> instruction: 0xffffffff
 8002060:	ffffffff 			@ <UNDEFINED> instruction: 0xffffffff
 8002064:	ffffffff 			@ <UNDEFINED> instruction: 0xffffffff
 8002068:	ffffffff 			@ <UNDEFINED> instruction: 0xffffffff
 800206c:	ffffffff 			@ <UNDEFINED> instruction: 0xffffffff
 8002070:	ffffffff 			@ <UNDEFINED> instruction: 0xffffffff
 8002074:	ffffffff 			@ <UNDEFINED> instruction: 0xffffffff
 8002078:	ffffffff 			@ <UNDEFINED> instruction: 0xffffffff
 800207c:	ffffffff 			@ <UNDEFINED> instruction: 0xffffffff
 8002080:	ffffffff 			@ <UNDEFINED> instruction: 0xffffffff
 8002084:	ffffffff 			@ <UNDEFINED> instruction: 0xffffffff
 8002088:	ffffffff 			@ <UNDEFINED> instruction: 0xffffffff
 800208c:	ffffffff 			@ <UNDEFINED> instruction: 0xffffffff
 8002090:	ffffffff 			@ <UNDEFINED> instruction: 0xffffffff
 8002094:	ffffffff 			@ <UNDEFINED> instruction: 0xffffffff
 8002098:	ffffffff 			@ <UNDEFINED> instruction: 0xffffffff
 800209c:	ffffffff 			@ <UNDEFINED> instruction: 0xffffffff
 80020a0:	ffffffff 			@ <UNDEFINED> instruction: 0xffffffff
 80020a4:	ffffffff 			@ <UNDEFINED> instruction: 0xffffffff
 80020a8:	ffffffff 			@ <UNDEFINED> instruction: 0xffffffff
 80020ac:	ffffffff 			@ <UNDEFINED> instruction: 0xffffffff
 80020b0:	ffffffff 			@ <UNDEFINED> instruction: 0xffffffff
 80020b4:	ffffffff 			@ <UNDEFINED> instruction: 0xffffffff
 80020b8:	ffffffff 			@ <UNDEFINED> instruction: 0xffffffff
 80020bc:	ffffffff 			@ <UNDEFINED> instruction: 0xffffffff
 80020c0:	ffffffff 			@ <UNDEFINED> instruction: 0xffffffff
 80020c4:	ffffffff 			@ <UNDEFINED> instruction: 0xffffffff
 80020c8:	ffffffff 			@ <UNDEFINED> instruction: 0xffffffff
 80020cc:	ffffffff 			@ <UNDEFINED> instruction: 0xffffffff
 80020d0:	ffffffff 			@ <UNDEFINED> instruction: 0xffffffff
 80020d4:	ffffffff 			@ <UNDEFINED> instruction: 0xffffffff
 80020d8:	ffffffff 			@ <UNDEFINED> instruction: 0xffffffff
 80020dc:	ffffffff 			@ <UNDEFINED> instruction: 0xffffffff
 80020e0:	ffffffff 			@ <UNDEFINED> instruction: 0xffffffff
 80020e4:	ffffffff 			@ <UNDEFINED> instruction: 0xffffffff
 80020e8:	ffffffff 			@ <UNDEFINED> instruction: 0xffffffff
 80020ec:	ffffffff 			@ <UNDEFINED> instruction: 0xffffffff
 80020f0:	ffffffff 			@ <UNDEFINED> instruction: 0xffffffff
 80020f4:	ffffffff 			@ <UNDEFINED> instruction: 0xffffffff
 80020f8:	ffffffff 			@ <UNDEFINED> instruction: 0xffffffff
 80020fc:	ffffffff 			@ <UNDEFINED> instruction: 0xffffffff
 8002100:	ffffffff 			@ <UNDEFINED> instruction: 0xffffffff
 8002104:	ffffffff 			@ <UNDEFINED> instruction: 0xffffffff
 8002108:	ffffffff 			@ <UNDEFINED> instruction: 0xffffffff
 800210c:	ffffffff 			@ <UNDEFINED> instruction: 0xffffffff
 8002110:	ffffffff 			@ <UNDEFINED> instruction: 0xffffffff
 8002114:	ffffffff 			@ <UNDEFINED> instruction: 0xffffffff
 8002118:	ffffffff 			@ <UNDEFINED> instruction: 0xffffffff
 800211c:	ffffffff 			@ <UNDEFINED> instruction: 0xffffffff
 8002120:	ffffffff 			@ <UNDEFINED> instruction: 0xffffffff
 8002124:	ffffffff 			@ <UNDEFINED> instruction: 0xffffffff
 8002128:	ffffffff 			@ <UNDEFINED> instruction: 0xffffffff
 800212c:	ffffffff 			@ <UNDEFINED> instruction: 0xffffffff
 8002130:	ffffffff 			@ <UNDEFINED> instruction: 0xffffffff
 8002134:	ffffffff 			@ <UNDEFINED> instruction: 0xffffffff
 8002138:	ffffffff 			@ <UNDEFINED> instruction: 0xffffffff
 800213c:	ffffffff 			@ <UNDEFINED> instruction: 0xffffffff
 8002140:	ffffffff 			@ <UNDEFINED> instruction: 0xffffffff
 8002144:	ffffffff 			@ <UNDEFINED> instruction: 0xffffffff
 8002148:	ffffffff 			@ <UNDEFINED> instruction: 0xffffffff
 800214c:	ffffffff 			@ <UNDEFINED> instruction: 0xffffffff
 8002150:	ffffffff 			@ <UNDEFINED> instruction: 0xffffffff
 8002154:	ffffffff 			@ <UNDEFINED> instruction: 0xffffffff
 8002158:	ffffffff 			@ <UNDEFINED> instruction: 0xffffffff
 800215c:	ffffffff 			@ <UNDEFINED> instruction: 0xffffffff
 8002160:	ffffffff 			@ <UNDEFINED> instruction: 0xffffffff
 8002164:	ffffffff 			@ <UNDEFINED> instruction: 0xffffffff
 8002168:	ffffffff 			@ <UNDEFINED> instruction: 0xffffffff
 800216c:	ffffffff 			@ <UNDEFINED> instruction: 0xffffffff
 8002170:	ffffffff 			@ <UNDEFINED> instruction: 0xffffffff
 8002174:	ffffffff 			@ <UNDEFINED> instruction: 0xffffffff
 8002178:	ffffffff 			@ <UNDEFINED> instruction: 0xffffffff
 800217c:	ffffffff 			@ <UNDEFINED> instruction: 0xffffffff
 8002180:	ffffffff 			@ <UNDEFINED> instruction: 0xffffffff
 8002184:	ffffffff 			@ <UNDEFINED> instruction: 0xffffffff
 8002188:	ffffffff 			@ <UNDEFINED> instruction: 0xffffffff
 800218c:	ffffffff 			@ <UNDEFINED> instruction: 0xffffffff
 8002190:	ffffffff 			@ <UNDEFINED> instruction: 0xffffffff
 8002194:	ffffffff 			@ <UNDEFINED> instruction: 0xffffffff
 8002198:	ffffffff 			@ <UNDEFINED> instruction: 0xffffffff
 800219c:	ffffffff 			@ <UNDEFINED> instruction: 0xffffffff
 80021a0:	ffffffff 			@ <UNDEFINED> instruction: 0xffffffff
 80021a4:	ffffffff 			@ <UNDEFINED> instruction: 0xffffffff
 80021a8:	ffffffff 			@ <UNDEFINED> instruction: 0xffffffff
 80021ac:	ffffffff 			@ <UNDEFINED> instruction: 0xffffffff
 80021b0:	ffffffff 			@ <UNDEFINED> instruction: 0xffffffff
 80021b4:	ffffffff 			@ <UNDEFINED> instruction: 0xffffffff
 80021b8:	ffffffff 			@ <UNDEFINED> instruction: 0xffffffff
 80021bc:	ffffffff 			@ <UNDEFINED> instruction: 0xffffffff
 80021c0:	ffffffff 			@ <UNDEFINED> instruction: 0xffffffff
 80021c4:	ffffffff 			@ <UNDEFINED> instruction: 0xffffffff
 80021c8:	ffffffff 			@ <UNDEFINED> instruction: 0xffffffff
 80021cc:	ffffffff 			@ <UNDEFINED> instruction: 0xffffffff
 80021d0:	ffffffff 			@ <UNDEFINED> instruction: 0xffffffff
 80021d4:	ffffffff 			@ <UNDEFINED> instruction: 0xffffffff
 80021d8:	ffffffff 			@ <UNDEFINED> instruction: 0xffffffff
 80021dc:	ffffffff 			@ <UNDEFINED> instruction: 0xffffffff
 80021e0:	ffffffff 			@ <UNDEFINED> instruction: 0xffffffff
 80021e4:	ffffffff 			@ <UNDEFINED> instruction: 0xffffffff
 80021e8:	ffffffff 			@ <UNDEFINED> instruction: 0xffffffff
 80021ec:	ffffffff 			@ <UNDEFINED> instruction: 0xffffffff
 80021f0:	ffffffff 			@ <UNDEFINED> instruction: 0xffffffff
 80021f4:	ffffffff 			@ <UNDEFINED> instruction: 0xffffffff
 80021f8:	ffffffff 			@ <UNDEFINED> instruction: 0xffffffff
 80021fc:	ffffffff 			@ <UNDEFINED> instruction: 0xffffffff
 8002200:	ffffffff 			@ <UNDEFINED> instruction: 0xffffffff
 8002204:	ffffffff 			@ <UNDEFINED> instruction: 0xffffffff
 8002208:	ffffffff 			@ <UNDEFINED> instruction: 0xffffffff
 800220c:	ffffffff 			@ <UNDEFINED> instruction: 0xffffffff
 8002210:	ffffffff 			@ <UNDEFINED> instruction: 0xffffffff
 8002214:	ffffffff 			@ <UNDEFINED> instruction: 0xffffffff
 8002218:	ffffffff 			@ <UNDEFINED> instruction: 0xffffffff
 800221c:	ffffffff 			@ <UNDEFINED> instruction: 0xffffffff
 8002220:	ffffffff 			@ <UNDEFINED> instruction: 0xffffffff
 8002224:	ffffffff 			@ <UNDEFINED> instruction: 0xffffffff
 8002228:	ffffffff 			@ <UNDEFINED> instruction: 0xffffffff
 800222c:	ffffffff 			@ <UNDEFINED> instruction: 0xffffffff
 8002230:	ffffffff 			@ <UNDEFINED> instruction: 0xffffffff
 8002234:	ffffffff 			@ <UNDEFINED> instruction: 0xffffffff
 8002238:	ffffffff 			@ <UNDEFINED> instruction: 0xffffffff
 800223c:	ffffffff 			@ <UNDEFINED> instruction: 0xffffffff
 8002240:	ffffffff 			@ <UNDEFINED> instruction: 0xffffffff
 8002244:	ffffffff 			@ <UNDEFINED> instruction: 0xffffffff
 8002248:	ffffffff 			@ <UNDEFINED> instruction: 0xffffffff
 800224c:	ffffffff 			@ <UNDEFINED> instruction: 0xffffffff
 8002250:	ffffffff 			@ <UNDEFINED> instruction: 0xffffffff
 8002254:	ffffffff 			@ <UNDEFINED> instruction: 0xffffffff
 8002258:	ffffffff 			@ <UNDEFINED> instruction: 0xffffffff
 800225c:	ffffffff 			@ <UNDEFINED> instruction: 0xffffffff
 8002260:	ffffffff 			@ <UNDEFINED> instruction: 0xffffffff
 8002264:	ffffffff 			@ <UNDEFINED> instruction: 0xffffffff
 8002268:	ffffffff 			@ <UNDEFINED> instruction: 0xffffffff
 800226c:	ffffffff 			@ <UNDEFINED> instruction: 0xffffffff
 8002270:	ffffffff 			@ <UNDEFINED> instruction: 0xffffffff
 8002274:	ffffffff 			@ <UNDEFINED> instruction: 0xffffffff
 8002278:	ffffffff 			@ <UNDEFINED> instruction: 0xffffffff
 800227c:	ffffffff 			@ <UNDEFINED> instruction: 0xffffffff
 8002280:	ffffffff 			@ <UNDEFINED> instruction: 0xffffffff
 8002284:	ffffffff 			@ <UNDEFINED> instruction: 0xffffffff
 8002288:	ffffffff 			@ <UNDEFINED> instruction: 0xffffffff
 800228c:	ffffffff 			@ <UNDEFINED> instruction: 0xffffffff
 8002290:	ffffffff 			@ <UNDEFINED> instruction: 0xffffffff
 8002294:	ffffffff 			@ <UNDEFINED> instruction: 0xffffffff
 8002298:	ffffffff 			@ <UNDEFINED> instruction: 0xffffffff
 800229c:	ffffffff 			@ <UNDEFINED> instruction: 0xffffffff
 80022a0:	ffffffff 			@ <UNDEFINED> instruction: 0xffffffff
 80022a4:	ffffffff 			@ <UNDEFINED> instruction: 0xffffffff
 80022a8:	ffffffff 			@ <UNDEFINED> instruction: 0xffffffff
 80022ac:	ffffffff 			@ <UNDEFINED> instruction: 0xffffffff
 80022b0:	ffffffff 			@ <UNDEFINED> instruction: 0xffffffff
 80022b4:	ffffffff 			@ <UNDEFINED> instruction: 0xffffffff
 80022b8:	ffffffff 			@ <UNDEFINED> instruction: 0xffffffff
 80022bc:	ffffffff 			@ <UNDEFINED> instruction: 0xffffffff
 80022c0:	ffffffff 			@ <UNDEFINED> instruction: 0xffffffff
 80022c4:	ffffffff 			@ <UNDEFINED> instruction: 0xffffffff
 80022c8:	ffffffff 			@ <UNDEFINED> instruction: 0xffffffff
 80022cc:	ffffffff 			@ <UNDEFINED> instruction: 0xffffffff
 80022d0:	ffffffff 			@ <UNDEFINED> instruction: 0xffffffff
 80022d4:	ffffffff 			@ <UNDEFINED> instruction: 0xffffffff
 80022d8:	ffffffff 			@ <UNDEFINED> instruction: 0xffffffff
 80022dc:	ffffffff 			@ <UNDEFINED> instruction: 0xffffffff
 80022e0:	ffffffff 			@ <UNDEFINED> instruction: 0xffffffff
 80022e4:	ffffffff 			@ <UNDEFINED> instruction: 0xffffffff
 80022e8:	ffffffff 			@ <UNDEFINED> instruction: 0xffffffff
 80022ec:	ffffffff 			@ <UNDEFINED> instruction: 0xffffffff
 80022f0:	ffffffff 			@ <UNDEFINED> instruction: 0xffffffff
 80022f4:	ffffffff 			@ <UNDEFINED> instruction: 0xffffffff
 80022f8:	ffffffff 			@ <UNDEFINED> instruction: 0xffffffff
 80022fc:	ffffffff 			@ <UNDEFINED> instruction: 0xffffffff
 8002300:	ffffffff 			@ <UNDEFINED> instruction: 0xffffffff
 8002304:	ffffffff 			@ <UNDEFINED> instruction: 0xffffffff
 8002308:	ffffffff 			@ <UNDEFINED> instruction: 0xffffffff
 800230c:	ffffffff 			@ <UNDEFINED> instruction: 0xffffffff
 8002310:	ffffffff 			@ <UNDEFINED> instruction: 0xffffffff
 8002314:	ffffffff 			@ <UNDEFINED> instruction: 0xffffffff
 8002318:	ffffffff 			@ <UNDEFINED> instruction: 0xffffffff
 800231c:	ffffffff 			@ <UNDEFINED> instruction: 0xffffffff
 8002320:	ffffffff 			@ <UNDEFINED> instruction: 0xffffffff
 8002324:	ffffffff 			@ <UNDEFINED> instruction: 0xffffffff
 8002328:	ffffffff 			@ <UNDEFINED> instruction: 0xffffffff
 800232c:	ffffffff 			@ <UNDEFINED> instruction: 0xffffffff
 8002330:	ffffffff 			@ <UNDEFINED> instruction: 0xffffffff
 8002334:	ffffffff 			@ <UNDEFINED> instruction: 0xffffffff
 8002338:	ffffffff 			@ <UNDEFINED> instruction: 0xffffffff
 800233c:	ffffffff 			@ <UNDEFINED> instruction: 0xffffffff
 8002340:	ffffffff 			@ <UNDEFINED> instruction: 0xffffffff
 8002344:	ffffffff 			@ <UNDEFINED> instruction: 0xffffffff
 8002348:	ffffffff 			@ <UNDEFINED> instruction: 0xffffffff
 800234c:	ffffffff 			@ <UNDEFINED> instruction: 0xffffffff
 8002350:	ffffffff 			@ <UNDEFINED> instruction: 0xffffffff
 8002354:	ffffffff 			@ <UNDEFINED> instruction: 0xffffffff
 8002358:	ffffffff 			@ <UNDEFINED> instruction: 0xffffffff
 800235c:	ffffffff 			@ <UNDEFINED> instruction: 0xffffffff
 8002360:	ffffffff 			@ <UNDEFINED> instruction: 0xffffffff
 8002364:	ffffffff 			@ <UNDEFINED> instruction: 0xffffffff
 8002368:	ffffffff 			@ <UNDEFINED> instruction: 0xffffffff
 800236c:	ffffffff 			@ <UNDEFINED> instruction: 0xffffffff
 8002370:	ffffffff 			@ <UNDEFINED> instruction: 0xffffffff
 8002374:	ffffffff 			@ <UNDEFINED> instruction: 0xffffffff
 8002378:	ffffffff 			@ <UNDEFINED> instruction: 0xffffffff
 800237c:	ffffffff 			@ <UNDEFINED> instruction: 0xffffffff
 8002380:	ffffffff 			@ <UNDEFINED> instruction: 0xffffffff
 8002384:	ffffffff 			@ <UNDEFINED> instruction: 0xffffffff
 8002388:	ffffffff 			@ <UNDEFINED> instruction: 0xffffffff
 800238c:	ffffffff 			@ <UNDEFINED> instruction: 0xffffffff
 8002390:	ffffffff 			@ <UNDEFINED> instruction: 0xffffffff
 8002394:	ffffffff 			@ <UNDEFINED> instruction: 0xffffffff
 8002398:	ffffffff 			@ <UNDEFINED> instruction: 0xffffffff
 800239c:	ffffffff 			@ <UNDEFINED> instruction: 0xffffffff
 80023a0:	ffffffff 			@ <UNDEFINED> instruction: 0xffffffff
 80023a4:	ffffffff 			@ <UNDEFINED> instruction: 0xffffffff
 80023a8:	ffffffff 			@ <UNDEFINED> instruction: 0xffffffff
 80023ac:	ffffffff 			@ <UNDEFINED> instruction: 0xffffffff
 80023b0:	ffffffff 			@ <UNDEFINED> instruction: 0xffffffff
 80023b4:	ffffffff 			@ <UNDEFINED> instruction: 0xffffffff
 80023b8:	ffffffff 			@ <UNDEFINED> instruction: 0xffffffff
 80023bc:	ffffffff 			@ <UNDEFINED> instruction: 0xffffffff
 80023c0:	ffffffff 			@ <UNDEFINED> instruction: 0xffffffff
 80023c4:	ffffffff 			@ <UNDEFINED> instruction: 0xffffffff
 80023c8:	ffffffff 			@ <UNDEFINED> instruction: 0xffffffff
 80023cc:	ffffffff 			@ <UNDEFINED> instruction: 0xffffffff
 80023d0:	ffffffff 			@ <UNDEFINED> instruction: 0xffffffff
 80023d4:	ffffffff 			@ <UNDEFINED> instruction: 0xffffffff
 80023d8:	ffffffff 			@ <UNDEFINED> instruction: 0xffffffff
 80023dc:	ffffffff 			@ <UNDEFINED> instruction: 0xffffffff
 80023e0:	ffffffff 			@ <UNDEFINED> instruction: 0xffffffff
 80023e4:	ffffffff 			@ <UNDEFINED> instruction: 0xffffffff
 80023e8:	ffffffff 			@ <UNDEFINED> instruction: 0xffffffff
 80023ec:	ffffffff 			@ <UNDEFINED> instruction: 0xffffffff
 80023f0:	ffffffff 			@ <UNDEFINED> instruction: 0xffffffff
 80023f4:	ffffffff 			@ <UNDEFINED> instruction: 0xffffffff
 80023f8:	ffffffff 			@ <UNDEFINED> instruction: 0xffffffff
 80023fc:	ffffffff 			@ <UNDEFINED> instruction: 0xffffffff
 8002400:	ffffffff 			@ <UNDEFINED> instruction: 0xffffffff
 8002404:	ffffffff 			@ <UNDEFINED> instruction: 0xffffffff
 8002408:	ffffffff 			@ <UNDEFINED> instruction: 0xffffffff
 800240c:	ffffffff 			@ <UNDEFINED> instruction: 0xffffffff
 8002410:	ffffffff 			@ <UNDEFINED> instruction: 0xffffffff
 8002414:	ffffffff 			@ <UNDEFINED> instruction: 0xffffffff
 8002418:	ffffffff 			@ <UNDEFINED> instruction: 0xffffffff
 800241c:	ffffffff 			@ <UNDEFINED> instruction: 0xffffffff
 8002420:	ffffffff 			@ <UNDEFINED> instruction: 0xffffffff
 8002424:	ffffffff 			@ <UNDEFINED> instruction: 0xffffffff
 8002428:	ffffffff 			@ <UNDEFINED> instruction: 0xffffffff
 800242c:	ffffffff 			@ <UNDEFINED> instruction: 0xffffffff
 8002430:	ffffffff 			@ <UNDEFINED> instruction: 0xffffffff
 8002434:	ffffffff 			@ <UNDEFINED> instruction: 0xffffffff
 8002438:	ffffffff 			@ <UNDEFINED> instruction: 0xffffffff
 800243c:	ffffffff 			@ <UNDEFINED> instruction: 0xffffffff
 8002440:	ffffffff 			@ <UNDEFINED> instruction: 0xffffffff
 8002444:	ffffffff 			@ <UNDEFINED> instruction: 0xffffffff
 8002448:	ffffffff 			@ <UNDEFINED> instruction: 0xffffffff
 800244c:	ffffffff 			@ <UNDEFINED> instruction: 0xffffffff
 8002450:	ffffffff 			@ <UNDEFINED> instruction: 0xffffffff
 8002454:	ffffffff 			@ <UNDEFINED> instruction: 0xffffffff
 8002458:	ffffffff 			@ <UNDEFINED> instruction: 0xffffffff
 800245c:	ffffffff 			@ <UNDEFINED> instruction: 0xffffffff
 8002460:	ffffffff 			@ <UNDEFINED> instruction: 0xffffffff
 8002464:	ffffffff 			@ <UNDEFINED> instruction: 0xffffffff
 8002468:	ffffffff 			@ <UNDEFINED> instruction: 0xffffffff
 800246c:	ffffffff 			@ <UNDEFINED> instruction: 0xffffffff
 8002470:	ffffffff 			@ <UNDEFINED> instruction: 0xffffffff
 8002474:	ffffffff 			@ <UNDEFINED> instruction: 0xffffffff
 8002478:	ffffffff 			@ <UNDEFINED> instruction: 0xffffffff
 800247c:	ffffffff 			@ <UNDEFINED> instruction: 0xffffffff
 8002480:	ffffffff 			@ <UNDEFINED> instruction: 0xffffffff
 8002484:	ffffffff 			@ <UNDEFINED> instruction: 0xffffffff
 8002488:	ffffffff 			@ <UNDEFINED> instruction: 0xffffffff
 800248c:	ffffffff 			@ <UNDEFINED> instruction: 0xffffffff
 8002490:	ffffffff 			@ <UNDEFINED> instruction: 0xffffffff
 8002494:	ffffffff 			@ <UNDEFINED> instruction: 0xffffffff
 8002498:	ffffffff 			@ <UNDEFINED> instruction: 0xffffffff
 800249c:	ffffffff 			@ <UNDEFINED> instruction: 0xffffffff
 80024a0:	ffffffff 			@ <UNDEFINED> instruction: 0xffffffff
 80024a4:	ffffffff 			@ <UNDEFINED> instruction: 0xffffffff
 80024a8:	ffffffff 			@ <UNDEFINED> instruction: 0xffffffff
 80024ac:	ffffffff 			@ <UNDEFINED> instruction: 0xffffffff
 80024b0:	ffffffff 			@ <UNDEFINED> instruction: 0xffffffff
 80024b4:	ffffffff 			@ <UNDEFINED> instruction: 0xffffffff
 80024b8:	ffffffff 			@ <UNDEFINED> instruction: 0xffffffff
 80024bc:	ffffffff 			@ <UNDEFINED> instruction: 0xffffffff
 80024c0:	ffffffff 			@ <UNDEFINED> instruction: 0xffffffff
 80024c4:	ffffffff 			@ <UNDEFINED> instruction: 0xffffffff
 80024c8:	ffffffff 			@ <UNDEFINED> instruction: 0xffffffff
 80024cc:	ffffffff 			@ <UNDEFINED> instruction: 0xffffffff
 80024d0:	ffffffff 			@ <UNDEFINED> instruction: 0xffffffff
 80024d4:	ffffffff 			@ <UNDEFINED> instruction: 0xffffffff
 80024d8:	ffffffff 			@ <UNDEFINED> instruction: 0xffffffff
 80024dc:	ffffffff 			@ <UNDEFINED> instruction: 0xffffffff
 80024e0:	ffffffff 			@ <UNDEFINED> instruction: 0xffffffff
 80024e4:	ffffffff 			@ <UNDEFINED> instruction: 0xffffffff
 80024e8:	ffffffff 			@ <UNDEFINED> instruction: 0xffffffff
 80024ec:	ffffffff 			@ <UNDEFINED> instruction: 0xffffffff
 80024f0:	ffffffff 			@ <UNDEFINED> instruction: 0xffffffff
 80024f4:	ffffffff 			@ <UNDEFINED> instruction: 0xffffffff
 80024f8:	ffffffff 			@ <UNDEFINED> instruction: 0xffffffff
 80024fc:	ffffffff 			@ <UNDEFINED> instruction: 0xffffffff
 8002500:	ffffffff 			@ <UNDEFINED> instruction: 0xffffffff
 8002504:	ffffffff 			@ <UNDEFINED> instruction: 0xffffffff
 8002508:	ffffffff 			@ <UNDEFINED> instruction: 0xffffffff
 800250c:	ffffffff 			@ <UNDEFINED> instruction: 0xffffffff
 8002510:	ffffffff 			@ <UNDEFINED> instruction: 0xffffffff
 8002514:	ffffffff 			@ <UNDEFINED> instruction: 0xffffffff
 8002518:	ffffffff 			@ <UNDEFINED> instruction: 0xffffffff
 800251c:	ffffffff 			@ <UNDEFINED> instruction: 0xffffffff
 8002520:	ffffffff 			@ <UNDEFINED> instruction: 0xffffffff
 8002524:	ffffffff 			@ <UNDEFINED> instruction: 0xffffffff
 8002528:	ffffffff 			@ <UNDEFINED> instruction: 0xffffffff
 800252c:	ffffffff 			@ <UNDEFINED> instruction: 0xffffffff
 8002530:	ffffffff 			@ <UNDEFINED> instruction: 0xffffffff
 8002534:	ffffffff 			@ <UNDEFINED> instruction: 0xffffffff
 8002538:	ffffffff 			@ <UNDEFINED> instruction: 0xffffffff
 800253c:	ffffffff 			@ <UNDEFINED> instruction: 0xffffffff
 8002540:	ffffffff 			@ <UNDEFINED> instruction: 0xffffffff
 8002544:	ffffffff 			@ <UNDEFINED> instruction: 0xffffffff
 8002548:	ffffffff 			@ <UNDEFINED> instruction: 0xffffffff
 800254c:	ffffffff 			@ <UNDEFINED> instruction: 0xffffffff
 8002550:	ffffffff 			@ <UNDEFINED> instruction: 0xffffffff
 8002554:	ffffffff 			@ <UNDEFINED> instruction: 0xffffffff
 8002558:	ffffffff 			@ <UNDEFINED> instruction: 0xffffffff
 800255c:	ffffffff 			@ <UNDEFINED> instruction: 0xffffffff
 8002560:	ffffffff 			@ <UNDEFINED> instruction: 0xffffffff
 8002564:	ffffffff 			@ <UNDEFINED> instruction: 0xffffffff
 8002568:	ffffffff 			@ <UNDEFINED> instruction: 0xffffffff
 800256c:	ffffffff 			@ <UNDEFINED> instruction: 0xffffffff
 8002570:	ffffffff 			@ <UNDEFINED> instruction: 0xffffffff
 8002574:	ffffffff 			@ <UNDEFINED> instruction: 0xffffffff
 8002578:	ffffffff 			@ <UNDEFINED> instruction: 0xffffffff
 800257c:	ffffffff 			@ <UNDEFINED> instruction: 0xffffffff
 8002580:	ffffffff 			@ <UNDEFINED> instruction: 0xffffffff
 8002584:	ffffffff 			@ <UNDEFINED> instruction: 0xffffffff
 8002588:	ffffffff 			@ <UNDEFINED> instruction: 0xffffffff
 800258c:	ffffffff 			@ <UNDEFINED> instruction: 0xffffffff
 8002590:	ffffffff 			@ <UNDEFINED> instruction: 0xffffffff
 8002594:	ffffffff 			@ <UNDEFINED> instruction: 0xffffffff
 8002598:	ffffffff 			@ <UNDEFINED> instruction: 0xffffffff
 800259c:	ffffffff 			@ <UNDEFINED> instruction: 0xffffffff
 80025a0:	ffffffff 			@ <UNDEFINED> instruction: 0xffffffff
 80025a4:	ffffffff 			@ <UNDEFINED> instruction: 0xffffffff
 80025a8:	ffffffff 			@ <UNDEFINED> instruction: 0xffffffff
 80025ac:	ffffffff 			@ <UNDEFINED> instruction: 0xffffffff
 80025b0:	ffffffff 			@ <UNDEFINED> instruction: 0xffffffff
 80025b4:	ffffffff 			@ <UNDEFINED> instruction: 0xffffffff
 80025b8:	ffffffff 			@ <UNDEFINED> instruction: 0xffffffff
 80025bc:	ffffffff 			@ <UNDEFINED> instruction: 0xffffffff
 80025c0:	ffffffff 			@ <UNDEFINED> instruction: 0xffffffff
 80025c4:	ffffffff 			@ <UNDEFINED> instruction: 0xffffffff
 80025c8:	ffffffff 			@ <UNDEFINED> instruction: 0xffffffff
 80025cc:	ffffffff 			@ <UNDEFINED> instruction: 0xffffffff
 80025d0:	ffffffff 			@ <UNDEFINED> instruction: 0xffffffff
 80025d4:	ffffffff 			@ <UNDEFINED> instruction: 0xffffffff
 80025d8:	ffffffff 			@ <UNDEFINED> instruction: 0xffffffff
 80025dc:	ffffffff 			@ <UNDEFINED> instruction: 0xffffffff
 80025e0:	ffffffff 			@ <UNDEFINED> instruction: 0xffffffff
 80025e4:	ffffffff 			@ <UNDEFINED> instruction: 0xffffffff
 80025e8:	ffffffff 			@ <UNDEFINED> instruction: 0xffffffff
 80025ec:	ffffffff 			@ <UNDEFINED> instruction: 0xffffffff
 80025f0:	ffffffff 			@ <UNDEFINED> instruction: 0xffffffff
 80025f4:	ffffffff 			@ <UNDEFINED> instruction: 0xffffffff
 80025f8:	ffffffff 			@ <UNDEFINED> instruction: 0xffffffff
 80025fc:	ffffffff 			@ <UNDEFINED> instruction: 0xffffffff
 8002600:	ffffffff 			@ <UNDEFINED> instruction: 0xffffffff
 8002604:	ffffffff 			@ <UNDEFINED> instruction: 0xffffffff
 8002608:	ffffffff 			@ <UNDEFINED> instruction: 0xffffffff
 800260c:	ffffffff 			@ <UNDEFINED> instruction: 0xffffffff
 8002610:	ffffffff 			@ <UNDEFINED> instruction: 0xffffffff
 8002614:	ffffffff 			@ <UNDEFINED> instruction: 0xffffffff
 8002618:	ffffffff 			@ <UNDEFINED> instruction: 0xffffffff
 800261c:	ffffffff 			@ <UNDEFINED> instruction: 0xffffffff
 8002620:	ffffffff 			@ <UNDEFINED> instruction: 0xffffffff
 8002624:	ffffffff 			@ <UNDEFINED> instruction: 0xffffffff
 8002628:	ffffffff 			@ <UNDEFINED> instruction: 0xffffffff
 800262c:	ffffffff 			@ <UNDEFINED> instruction: 0xffffffff
 8002630:	ffffffff 			@ <UNDEFINED> instruction: 0xffffffff
 8002634:	ffffffff 			@ <UNDEFINED> instruction: 0xffffffff
 8002638:	ffffffff 			@ <UNDEFINED> instruction: 0xffffffff
 800263c:	ffffffff 			@ <UNDEFINED> instruction: 0xffffffff
 8002640:	ffffffff 			@ <UNDEFINED> instruction: 0xffffffff
 8002644:	ffffffff 			@ <UNDEFINED> instruction: 0xffffffff
 8002648:	ffffffff 			@ <UNDEFINED> instruction: 0xffffffff
 800264c:	ffffffff 			@ <UNDEFINED> instruction: 0xffffffff
 8002650:	ffffffff 			@ <UNDEFINED> instruction: 0xffffffff
 8002654:	ffffffff 			@ <UNDEFINED> instruction: 0xffffffff
 8002658:	ffffffff 			@ <UNDEFINED> instruction: 0xffffffff
 800265c:	ffffffff 			@ <UNDEFINED> instruction: 0xffffffff
 8002660:	ffffffff 			@ <UNDEFINED> instruction: 0xffffffff
 8002664:	ffffffff 			@ <UNDEFINED> instruction: 0xffffffff
 8002668:	ffffffff 			@ <UNDEFINED> instruction: 0xffffffff
 800266c:	ffffffff 			@ <UNDEFINED> instruction: 0xffffffff
 8002670:	ffffffff 			@ <UNDEFINED> instruction: 0xffffffff
 8002674:	ffffffff 			@ <UNDEFINED> instruction: 0xffffffff
 8002678:	ffffffff 			@ <UNDEFINED> instruction: 0xffffffff
 800267c:	ffffffff 			@ <UNDEFINED> instruction: 0xffffffff
 8002680:	ffffffff 			@ <UNDEFINED> instruction: 0xffffffff
 8002684:	ffffffff 			@ <UNDEFINED> instruction: 0xffffffff
 8002688:	ffffffff 			@ <UNDEFINED> instruction: 0xffffffff
 800268c:	ffffffff 			@ <UNDEFINED> instruction: 0xffffffff
 8002690:	ffffffff 			@ <UNDEFINED> instruction: 0xffffffff
 8002694:	ffffffff 			@ <UNDEFINED> instruction: 0xffffffff
 8002698:	ffffffff 			@ <UNDEFINED> instruction: 0xffffffff
 800269c:	ffffffff 			@ <UNDEFINED> instruction: 0xffffffff
 80026a0:	ffffffff 			@ <UNDEFINED> instruction: 0xffffffff
 80026a4:	ffffffff 			@ <UNDEFINED> instruction: 0xffffffff
 80026a8:	ffffffff 			@ <UNDEFINED> instruction: 0xffffffff
 80026ac:	ffffffff 			@ <UNDEFINED> instruction: 0xffffffff
 80026b0:	ffffffff 			@ <UNDEFINED> instruction: 0xffffffff
 80026b4:	ffffffff 			@ <UNDEFINED> instruction: 0xffffffff
 80026b8:	ffffffff 			@ <UNDEFINED> instruction: 0xffffffff
 80026bc:	ffffffff 			@ <UNDEFINED> instruction: 0xffffffff
 80026c0:	ffffffff 			@ <UNDEFINED> instruction: 0xffffffff
 80026c4:	ffffffff 			@ <UNDEFINED> instruction: 0xffffffff
 80026c8:	ffffffff 			@ <UNDEFINED> instruction: 0xffffffff
 80026cc:	ffffffff 			@ <UNDEFINED> instruction: 0xffffffff
 80026d0:	ffffffff 			@ <UNDEFINED> instruction: 0xffffffff
 80026d4:	ffffffff 			@ <UNDEFINED> instruction: 0xffffffff
 80026d8:	ffffffff 			@ <UNDEFINED> instruction: 0xffffffff
 80026dc:	ffffffff 			@ <UNDEFINED> instruction: 0xffffffff
 80026e0:	ffffffff 			@ <UNDEFINED> instruction: 0xffffffff
 80026e4:	ffffffff 			@ <UNDEFINED> instruction: 0xffffffff
 80026e8:	ffffffff 			@ <UNDEFINED> instruction: 0xffffffff
 80026ec:	ffffffff 			@ <UNDEFINED> instruction: 0xffffffff
 80026f0:	ffffffff 			@ <UNDEFINED> instruction: 0xffffffff
 80026f4:	ffffffff 			@ <UNDEFINED> instruction: 0xffffffff
 80026f8:	ffffffff 			@ <UNDEFINED> instruction: 0xffffffff
 80026fc:	ffffffff 			@ <UNDEFINED> instruction: 0xffffffff
 8002700:	ffffffff 			@ <UNDEFINED> instruction: 0xffffffff
 8002704:	ffffffff 			@ <UNDEFINED> instruction: 0xffffffff
 8002708:	ffffffff 			@ <UNDEFINED> instruction: 0xffffffff
 800270c:	ffffffff 			@ <UNDEFINED> instruction: 0xffffffff
 8002710:	ffffffff 			@ <UNDEFINED> instruction: 0xffffffff
 8002714:	ffffffff 			@ <UNDEFINED> instruction: 0xffffffff
 8002718:	ffffffff 			@ <UNDEFINED> instruction: 0xffffffff
 800271c:	ffffffff 			@ <UNDEFINED> instruction: 0xffffffff
 8002720:	ffffffff 			@ <UNDEFINED> instruction: 0xffffffff
 8002724:	ffffffff 			@ <UNDEFINED> instruction: 0xffffffff
 8002728:	ffffffff 			@ <UNDEFINED> instruction: 0xffffffff
 800272c:	ffffffff 			@ <UNDEFINED> instruction: 0xffffffff
 8002730:	ffffffff 			@ <UNDEFINED> instruction: 0xffffffff
 8002734:	ffffffff 			@ <UNDEFINED> instruction: 0xffffffff
 8002738:	ffffffff 			@ <UNDEFINED> instruction: 0xffffffff
 800273c:	ffffffff 			@ <UNDEFINED> instruction: 0xffffffff
 8002740:	ffffffff 			@ <UNDEFINED> instruction: 0xffffffff
 8002744:	ffffffff 			@ <UNDEFINED> instruction: 0xffffffff
 8002748:	ffffffff 			@ <UNDEFINED> instruction: 0xffffffff
 800274c:	ffffffff 			@ <UNDEFINED> instruction: 0xffffffff
 8002750:	ffffffff 			@ <UNDEFINED> instruction: 0xffffffff
 8002754:	ffffffff 			@ <UNDEFINED> instruction: 0xffffffff
 8002758:	ffffffff 			@ <UNDEFINED> instruction: 0xffffffff
 800275c:	ffffffff 			@ <UNDEFINED> instruction: 0xffffffff
 8002760:	ffffffff 			@ <UNDEFINED> instruction: 0xffffffff
 8002764:	ffffffff 			@ <UNDEFINED> instruction: 0xffffffff
 8002768:	ffffffff 			@ <UNDEFINED> instruction: 0xffffffff
 800276c:	ffffffff 			@ <UNDEFINED> instruction: 0xffffffff
 8002770:	ffffffff 			@ <UNDEFINED> instruction: 0xffffffff
 8002774:	ffffffff 			@ <UNDEFINED> instruction: 0xffffffff
 8002778:	ffffffff 			@ <UNDEFINED> instruction: 0xffffffff
 800277c:	ffffffff 			@ <UNDEFINED> instruction: 0xffffffff
 8002780:	ffffffff 			@ <UNDEFINED> instruction: 0xffffffff
 8002784:	ffffffff 			@ <UNDEFINED> instruction: 0xffffffff
 8002788:	ffffffff 			@ <UNDEFINED> instruction: 0xffffffff
 800278c:	ffffffff 			@ <UNDEFINED> instruction: 0xffffffff
 8002790:	ffffffff 			@ <UNDEFINED> instruction: 0xffffffff
 8002794:	ffffffff 			@ <UNDEFINED> instruction: 0xffffffff
 8002798:	ffffffff 			@ <UNDEFINED> instruction: 0xffffffff
 800279c:	ffffffff 			@ <UNDEFINED> instruction: 0xffffffff
 80027a0:	ffffffff 			@ <UNDEFINED> instruction: 0xffffffff
 80027a4:	ffffffff 			@ <UNDEFINED> instruction: 0xffffffff
 80027a8:	ffffffff 			@ <UNDEFINED> instruction: 0xffffffff
 80027ac:	ffffffff 			@ <UNDEFINED> instruction: 0xffffffff
 80027b0:	ffffffff 			@ <UNDEFINED> instruction: 0xffffffff
 80027b4:	ffffffff 			@ <UNDEFINED> instruction: 0xffffffff
 80027b8:	ffffffff 			@ <UNDEFINED> instruction: 0xffffffff
 80027bc:	ffffffff 			@ <UNDEFINED> instruction: 0xffffffff
 80027c0:	ffffffff 			@ <UNDEFINED> instruction: 0xffffffff
 80027c4:	ffffffff 			@ <UNDEFINED> instruction: 0xffffffff
 80027c8:	ffffffff 			@ <UNDEFINED> instruction: 0xffffffff
 80027cc:	ffffffff 			@ <UNDEFINED> instruction: 0xffffffff
 80027d0:	ffffffff 			@ <UNDEFINED> instruction: 0xffffffff
 80027d4:	ffffffff 			@ <UNDEFINED> instruction: 0xffffffff
 80027d8:	ffffffff 			@ <UNDEFINED> instruction: 0xffffffff
 80027dc:	ffffffff 			@ <UNDEFINED> instruction: 0xffffffff
 80027e0:	ffffffff 			@ <UNDEFINED> instruction: 0xffffffff
 80027e4:	ffffffff 			@ <UNDEFINED> instruction: 0xffffffff
 80027e8:	ffffffff 			@ <UNDEFINED> instruction: 0xffffffff
 80027ec:	ffffffff 			@ <UNDEFINED> instruction: 0xffffffff
 80027f0:	ffffffff 			@ <UNDEFINED> instruction: 0xffffffff
 80027f4:	ffffffff 			@ <UNDEFINED> instruction: 0xffffffff
 80027f8:	ffffffff 			@ <UNDEFINED> instruction: 0xffffffff
 80027fc:	ffffffff 			@ <UNDEFINED> instruction: 0xffffffff
 8002800:	ffffffff 			@ <UNDEFINED> instruction: 0xffffffff
 8002804:	ffffffff 			@ <UNDEFINED> instruction: 0xffffffff
 8002808:	ffffffff 			@ <UNDEFINED> instruction: 0xffffffff
 800280c:	ffffffff 			@ <UNDEFINED> instruction: 0xffffffff
 8002810:	ffffffff 			@ <UNDEFINED> instruction: 0xffffffff
 8002814:	ffffffff 			@ <UNDEFINED> instruction: 0xffffffff
 8002818:	ffffffff 			@ <UNDEFINED> instruction: 0xffffffff
 800281c:	ffffffff 			@ <UNDEFINED> instruction: 0xffffffff
 8002820:	ffffffff 			@ <UNDEFINED> instruction: 0xffffffff
 8002824:	ffffffff 			@ <UNDEFINED> instruction: 0xffffffff
 8002828:	ffffffff 			@ <UNDEFINED> instruction: 0xffffffff
 800282c:	ffffffff 			@ <UNDEFINED> instruction: 0xffffffff
 8002830:	ffffffff 			@ <UNDEFINED> instruction: 0xffffffff
 8002834:	ffffffff 			@ <UNDEFINED> instruction: 0xffffffff
 8002838:	ffffffff 			@ <UNDEFINED> instruction: 0xffffffff
 800283c:	ffffffff 			@ <UNDEFINED> instruction: 0xffffffff
 8002840:	ffffffff 			@ <UNDEFINED> instruction: 0xffffffff
 8002844:	ffffffff 			@ <UNDEFINED> instruction: 0xffffffff
 8002848:	ffffffff 			@ <UNDEFINED> instruction: 0xffffffff
 800284c:	ffffffff 			@ <UNDEFINED> instruction: 0xffffffff
 8002850:	ffffffff 			@ <UNDEFINED> instruction: 0xffffffff
 8002854:	ffffffff 			@ <UNDEFINED> instruction: 0xffffffff
 8002858:	ffffffff 			@ <UNDEFINED> instruction: 0xffffffff
 800285c:	ffffffff 			@ <UNDEFINED> instruction: 0xffffffff
 8002860:	ffffffff 			@ <UNDEFINED> instruction: 0xffffffff
 8002864:	ffffffff 			@ <UNDEFINED> instruction: 0xffffffff
 8002868:	ffffffff 			@ <UNDEFINED> instruction: 0xffffffff
 800286c:	ffffffff 			@ <UNDEFINED> instruction: 0xffffffff
 8002870:	ffffffff 			@ <UNDEFINED> instruction: 0xffffffff
 8002874:	ffffffff 			@ <UNDEFINED> instruction: 0xffffffff
 8002878:	ffffffff 			@ <UNDEFINED> instruction: 0xffffffff
 800287c:	ffffffff 			@ <UNDEFINED> instruction: 0xffffffff
 8002880:	ffffffff 			@ <UNDEFINED> instruction: 0xffffffff
 8002884:	ffffffff 			@ <UNDEFINED> instruction: 0xffffffff
 8002888:	ffffffff 			@ <UNDEFINED> instruction: 0xffffffff
 800288c:	ffffffff 			@ <UNDEFINED> instruction: 0xffffffff
 8002890:	ffffffff 			@ <UNDEFINED> instruction: 0xffffffff
 8002894:	ffffffff 			@ <UNDEFINED> instruction: 0xffffffff
 8002898:	ffffffff 			@ <UNDEFINED> instruction: 0xffffffff
 800289c:	ffffffff 			@ <UNDEFINED> instruction: 0xffffffff
 80028a0:	ffffffff 			@ <UNDEFINED> instruction: 0xffffffff
 80028a4:	ffffffff 			@ <UNDEFINED> instruction: 0xffffffff
 80028a8:	ffffffff 			@ <UNDEFINED> instruction: 0xffffffff
 80028ac:	ffffffff 			@ <UNDEFINED> instruction: 0xffffffff
 80028b0:	ffffffff 			@ <UNDEFINED> instruction: 0xffffffff
 80028b4:	ffffffff 			@ <UNDEFINED> instruction: 0xffffffff
 80028b8:	ffffffff 			@ <UNDEFINED> instruction: 0xffffffff
 80028bc:	ffffffff 			@ <UNDEFINED> instruction: 0xffffffff
 80028c0:	ffffffff 			@ <UNDEFINED> instruction: 0xffffffff
 80028c4:	ffffffff 			@ <UNDEFINED> instruction: 0xffffffff
 80028c8:	ffffffff 			@ <UNDEFINED> instruction: 0xffffffff
 80028cc:	ffffffff 			@ <UNDEFINED> instruction: 0xffffffff
 80028d0:	ffffffff 			@ <UNDEFINED> instruction: 0xffffffff
 80028d4:	ffffffff 			@ <UNDEFINED> instruction: 0xffffffff
 80028d8:	ffffffff 			@ <UNDEFINED> instruction: 0xffffffff
 80028dc:	ffffffff 			@ <UNDEFINED> instruction: 0xffffffff
 80028e0:	ffffffff 			@ <UNDEFINED> instruction: 0xffffffff
 80028e4:	ffffffff 			@ <UNDEFINED> instruction: 0xffffffff
 80028e8:	ffffffff 			@ <UNDEFINED> instruction: 0xffffffff
 80028ec:	ffffffff 			@ <UNDEFINED> instruction: 0xffffffff
 80028f0:	ffffffff 			@ <UNDEFINED> instruction: 0xffffffff
 80028f4:	ffffffff 			@ <UNDEFINED> instruction: 0xffffffff
 80028f8:	ffffffff 			@ <UNDEFINED> instruction: 0xffffffff
 80028fc:	ffffffff 			@ <UNDEFINED> instruction: 0xffffffff
 8002900:	ffffffff 			@ <UNDEFINED> instruction: 0xffffffff
 8002904:	ffffffff 			@ <UNDEFINED> instruction: 0xffffffff
 8002908:	ffffffff 			@ <UNDEFINED> instruction: 0xffffffff
 800290c:	ffffffff 			@ <UNDEFINED> instruction: 0xffffffff
 8002910:	ffffffff 			@ <UNDEFINED> instruction: 0xffffffff
 8002914:	ffffffff 			@ <UNDEFINED> instruction: 0xffffffff
 8002918:	ffffffff 			@ <UNDEFINED> instruction: 0xffffffff
 800291c:	ffffffff 			@ <UNDEFINED> instruction: 0xffffffff
 8002920:	ffffffff 			@ <UNDEFINED> instruction: 0xffffffff
 8002924:	ffffffff 			@ <UNDEFINED> instruction: 0xffffffff
 8002928:	ffffffff 			@ <UNDEFINED> instruction: 0xffffffff
 800292c:	ffffffff 			@ <UNDEFINED> instruction: 0xffffffff
 8002930:	ffffffff 			@ <UNDEFINED> instruction: 0xffffffff
 8002934:	ffffffff 			@ <UNDEFINED> instruction: 0xffffffff
 8002938:	ffffffff 			@ <UNDEFINED> instruction: 0xffffffff
 800293c:	ffffffff 			@ <UNDEFINED> instruction: 0xffffffff
 8002940:	ffffffff 			@ <UNDEFINED> instruction: 0xffffffff
 8002944:	ffffffff 			@ <UNDEFINED> instruction: 0xffffffff
 8002948:	ffffffff 			@ <UNDEFINED> instruction: 0xffffffff
 800294c:	ffffffff 			@ <UNDEFINED> instruction: 0xffffffff
 8002950:	ffffffff 			@ <UNDEFINED> instruction: 0xffffffff
 8002954:	ffffffff 			@ <UNDEFINED> instruction: 0xffffffff
 8002958:	ffffffff 			@ <UNDEFINED> instruction: 0xffffffff
 800295c:	ffffffff 			@ <UNDEFINED> instruction: 0xffffffff
 8002960:	ffffffff 			@ <UNDEFINED> instruction: 0xffffffff
 8002964:	ffffffff 			@ <UNDEFINED> instruction: 0xffffffff
 8002968:	ffffffff 			@ <UNDEFINED> instruction: 0xffffffff
 800296c:	ffffffff 			@ <UNDEFINED> instruction: 0xffffffff
 8002970:	ffffffff 			@ <UNDEFINED> instruction: 0xffffffff
 8002974:	ffffffff 			@ <UNDEFINED> instruction: 0xffffffff
 8002978:	ffffffff 			@ <UNDEFINED> instruction: 0xffffffff
 800297c:	ffffffff 			@ <UNDEFINED> instruction: 0xffffffff
 8002980:	ffffffff 			@ <UNDEFINED> instruction: 0xffffffff
 8002984:	ffffffff 			@ <UNDEFINED> instruction: 0xffffffff
 8002988:	ffffffff 			@ <UNDEFINED> instruction: 0xffffffff
 800298c:	ffffffff 			@ <UNDEFINED> instruction: 0xffffffff
 8002990:	ffffffff 			@ <UNDEFINED> instruction: 0xffffffff
 8002994:	ffffffff 			@ <UNDEFINED> instruction: 0xffffffff
 8002998:	ffffffff 			@ <UNDEFINED> instruction: 0xffffffff
 800299c:	ffffffff 			@ <UNDEFINED> instruction: 0xffffffff
 80029a0:	ffffffff 			@ <UNDEFINED> instruction: 0xffffffff
 80029a4:	ffffffff 			@ <UNDEFINED> instruction: 0xffffffff
 80029a8:	ffffffff 			@ <UNDEFINED> instruction: 0xffffffff
 80029ac:	ffffffff 			@ <UNDEFINED> instruction: 0xffffffff
 80029b0:	ffffffff 			@ <UNDEFINED> instruction: 0xffffffff
 80029b4:	ffffffff 			@ <UNDEFINED> instruction: 0xffffffff
 80029b8:	ffffffff 			@ <UNDEFINED> instruction: 0xffffffff
 80029bc:	ffffffff 			@ <UNDEFINED> instruction: 0xffffffff
 80029c0:	ffffffff 			@ <UNDEFINED> instruction: 0xffffffff
 80029c4:	ffffffff 			@ <UNDEFINED> instruction: 0xffffffff
 80029c8:	ffffffff 			@ <UNDEFINED> instruction: 0xffffffff
 80029cc:	ffffffff 			@ <UNDEFINED> instruction: 0xffffffff
 80029d0:	ffffffff 			@ <UNDEFINED> instruction: 0xffffffff
 80029d4:	ffffffff 			@ <UNDEFINED> instruction: 0xffffffff
 80029d8:	ffffffff 			@ <UNDEFINED> instruction: 0xffffffff
 80029dc:	ffffffff 			@ <UNDEFINED> instruction: 0xffffffff
 80029e0:	ffffffff 			@ <UNDEFINED> instruction: 0xffffffff
 80029e4:	ffffffff 			@ <UNDEFINED> instruction: 0xffffffff
 80029e8:	ffffffff 			@ <UNDEFINED> instruction: 0xffffffff
 80029ec:	ffffffff 			@ <UNDEFINED> instruction: 0xffffffff
 80029f0:	ffffffff 			@ <UNDEFINED> instruction: 0xffffffff
 80029f4:	ffffffff 			@ <UNDEFINED> instruction: 0xffffffff
 80029f8:	ffffffff 			@ <UNDEFINED> instruction: 0xffffffff
 80029fc:	ffffffff 			@ <UNDEFINED> instruction: 0xffffffff
 8002a00:	ffffffff 			@ <UNDEFINED> instruction: 0xffffffff
 8002a04:	ffffffff 			@ <UNDEFINED> instruction: 0xffffffff
 8002a08:	ffffffff 			@ <UNDEFINED> instruction: 0xffffffff
 8002a0c:	ffffffff 			@ <UNDEFINED> instruction: 0xffffffff
 8002a10:	ffffffff 			@ <UNDEFINED> instruction: 0xffffffff
 8002a14:	ffffffff 			@ <UNDEFINED> instruction: 0xffffffff
 8002a18:	ffffffff 			@ <UNDEFINED> instruction: 0xffffffff
 8002a1c:	ffffffff 			@ <UNDEFINED> instruction: 0xffffffff
 8002a20:	ffffffff 			@ <UNDEFINED> instruction: 0xffffffff
 8002a24:	ffffffff 			@ <UNDEFINED> instruction: 0xffffffff
 8002a28:	ffffffff 			@ <UNDEFINED> instruction: 0xffffffff
 8002a2c:	ffffffff 			@ <UNDEFINED> instruction: 0xffffffff
 8002a30:	ffffffff 			@ <UNDEFINED> instruction: 0xffffffff
 8002a34:	ffffffff 			@ <UNDEFINED> instruction: 0xffffffff
 8002a38:	ffffffff 			@ <UNDEFINED> instruction: 0xffffffff
 8002a3c:	ffffffff 			@ <UNDEFINED> instruction: 0xffffffff
 8002a40:	ffffffff 			@ <UNDEFINED> instruction: 0xffffffff
 8002a44:	ffffffff 			@ <UNDEFINED> instruction: 0xffffffff
 8002a48:	ffffffff 			@ <UNDEFINED> instruction: 0xffffffff
 8002a4c:	ffffffff 			@ <UNDEFINED> instruction: 0xffffffff
 8002a50:	ffffffff 			@ <UNDEFINED> instruction: 0xffffffff
 8002a54:	ffffffff 			@ <UNDEFINED> instruction: 0xffffffff
 8002a58:	ffffffff 			@ <UNDEFINED> instruction: 0xffffffff
 8002a5c:	ffffffff 			@ <UNDEFINED> instruction: 0xffffffff
 8002a60:	ffffffff 			@ <UNDEFINED> instruction: 0xffffffff
 8002a64:	ffffffff 			@ <UNDEFINED> instruction: 0xffffffff
 8002a68:	ffffffff 			@ <UNDEFINED> instruction: 0xffffffff
 8002a6c:	ffffffff 			@ <UNDEFINED> instruction: 0xffffffff
 8002a70:	ffffffff 			@ <UNDEFINED> instruction: 0xffffffff
 8002a74:	ffffffff 			@ <UNDEFINED> instruction: 0xffffffff
 8002a78:	ffffffff 			@ <UNDEFINED> instruction: 0xffffffff
 8002a7c:	ffffffff 			@ <UNDEFINED> instruction: 0xffffffff
 8002a80:	ffffffff 			@ <UNDEFINED> instruction: 0xffffffff
 8002a84:	ffffffff 			@ <UNDEFINED> instruction: 0xffffffff
 8002a88:	ffffffff 			@ <UNDEFINED> instruction: 0xffffffff
 8002a8c:	ffffffff 			@ <UNDEFINED> instruction: 0xffffffff
 8002a90:	ffffffff 			@ <UNDEFINED> instruction: 0xffffffff
 8002a94:	ffffffff 			@ <UNDEFINED> instruction: 0xffffffff
 8002a98:	ffffffff 			@ <UNDEFINED> instruction: 0xffffffff
 8002a9c:	ffffffff 			@ <UNDEFINED> instruction: 0xffffffff
 8002aa0:	ffffffff 			@ <UNDEFINED> instruction: 0xffffffff
 8002aa4:	ffffffff 			@ <UNDEFINED> instruction: 0xffffffff
 8002aa8:	ffffffff 			@ <UNDEFINED> instruction: 0xffffffff
 8002aac:	ffffffff 			@ <UNDEFINED> instruction: 0xffffffff
 8002ab0:	ffffffff 			@ <UNDEFINED> instruction: 0xffffffff
 8002ab4:	ffffffff 			@ <UNDEFINED> instruction: 0xffffffff
 8002ab8:	ffffffff 			@ <UNDEFINED> instruction: 0xffffffff
 8002abc:	ffffffff 			@ <UNDEFINED> instruction: 0xffffffff
 8002ac0:	ffffffff 			@ <UNDEFINED> instruction: 0xffffffff
 8002ac4:	ffffffff 			@ <UNDEFINED> instruction: 0xffffffff
 8002ac8:	ffffffff 			@ <UNDEFINED> instruction: 0xffffffff
 8002acc:	ffffffff 			@ <UNDEFINED> instruction: 0xffffffff
 8002ad0:	ffffffff 			@ <UNDEFINED> instruction: 0xffffffff
 8002ad4:	ffffffff 			@ <UNDEFINED> instruction: 0xffffffff
 8002ad8:	ffffffff 			@ <UNDEFINED> instruction: 0xffffffff
 8002adc:	ffffffff 			@ <UNDEFINED> instruction: 0xffffffff
 8002ae0:	ffffffff 			@ <UNDEFINED> instruction: 0xffffffff
 8002ae4:	ffffffff 			@ <UNDEFINED> instruction: 0xffffffff
 8002ae8:	ffffffff 			@ <UNDEFINED> instruction: 0xffffffff
 8002aec:	ffffffff 			@ <UNDEFINED> instruction: 0xffffffff
 8002af0:	ffffffff 			@ <UNDEFINED> instruction: 0xffffffff
 8002af4:	ffffffff 			@ <UNDEFINED> instruction: 0xffffffff
 8002af8:	ffffffff 			@ <UNDEFINED> instruction: 0xffffffff
 8002afc:	ffffffff 			@ <UNDEFINED> instruction: 0xffffffff
 8002b00:	ffffffff 			@ <UNDEFINED> instruction: 0xffffffff
 8002b04:	ffffffff 			@ <UNDEFINED> instruction: 0xffffffff
 8002b08:	ffffffff 			@ <UNDEFINED> instruction: 0xffffffff
 8002b0c:	ffffffff 			@ <UNDEFINED> instruction: 0xffffffff
 8002b10:	ffffffff 			@ <UNDEFINED> instruction: 0xffffffff
 8002b14:	ffffffff 			@ <UNDEFINED> instruction: 0xffffffff
 8002b18:	ffffffff 			@ <UNDEFINED> instruction: 0xffffffff
 8002b1c:	ffffffff 			@ <UNDEFINED> instruction: 0xffffffff
 8002b20:	ffffffff 			@ <UNDEFINED> instruction: 0xffffffff
 8002b24:	ffffffff 			@ <UNDEFINED> instruction: 0xffffffff
 8002b28:	ffffffff 			@ <UNDEFINED> instruction: 0xffffffff
 8002b2c:	ffffffff 			@ <UNDEFINED> instruction: 0xffffffff
 8002b30:	ffffffff 			@ <UNDEFINED> instruction: 0xffffffff
 8002b34:	ffffffff 			@ <UNDEFINED> instruction: 0xffffffff
 8002b38:	ffffffff 			@ <UNDEFINED> instruction: 0xffffffff
 8002b3c:	ffffffff 			@ <UNDEFINED> instruction: 0xffffffff
 8002b40:	ffffffff 			@ <UNDEFINED> instruction: 0xffffffff
 8002b44:	ffffffff 			@ <UNDEFINED> instruction: 0xffffffff
 8002b48:	ffffffff 			@ <UNDEFINED> instruction: 0xffffffff
 8002b4c:	ffffffff 			@ <UNDEFINED> instruction: 0xffffffff
 8002b50:	ffffffff 			@ <UNDEFINED> instruction: 0xffffffff
 8002b54:	ffffffff 			@ <UNDEFINED> instruction: 0xffffffff
 8002b58:	ffffffff 			@ <UNDEFINED> instruction: 0xffffffff
 8002b5c:	ffffffff 			@ <UNDEFINED> instruction: 0xffffffff
 8002b60:	ffffffff 			@ <UNDEFINED> instruction: 0xffffffff
 8002b64:	ffffffff 			@ <UNDEFINED> instruction: 0xffffffff
 8002b68:	ffffffff 			@ <UNDEFINED> instruction: 0xffffffff
 8002b6c:	ffffffff 			@ <UNDEFINED> instruction: 0xffffffff
 8002b70:	ffffffff 			@ <UNDEFINED> instruction: 0xffffffff
 8002b74:	ffffffff 			@ <UNDEFINED> instruction: 0xffffffff
 8002b78:	ffffffff 			@ <UNDEFINED> instruction: 0xffffffff
 8002b7c:	ffffffff 			@ <UNDEFINED> instruction: 0xffffffff
 8002b80:	ffffffff 			@ <UNDEFINED> instruction: 0xffffffff
 8002b84:	ffffffff 			@ <UNDEFINED> instruction: 0xffffffff
 8002b88:	ffffffff 			@ <UNDEFINED> instruction: 0xffffffff
 8002b8c:	ffffffff 			@ <UNDEFINED> instruction: 0xffffffff
 8002b90:	ffffffff 			@ <UNDEFINED> instruction: 0xffffffff
 8002b94:	ffffffff 			@ <UNDEFINED> instruction: 0xffffffff
 8002b98:	ffffffff 			@ <UNDEFINED> instruction: 0xffffffff
 8002b9c:	ffffffff 			@ <UNDEFINED> instruction: 0xffffffff
 8002ba0:	ffffffff 			@ <UNDEFINED> instruction: 0xffffffff
 8002ba4:	ffffffff 			@ <UNDEFINED> instruction: 0xffffffff
 8002ba8:	ffffffff 			@ <UNDEFINED> instruction: 0xffffffff
 8002bac:	ffffffff 			@ <UNDEFINED> instruction: 0xffffffff
 8002bb0:	ffffffff 			@ <UNDEFINED> instruction: 0xffffffff
 8002bb4:	ffffffff 			@ <UNDEFINED> instruction: 0xffffffff
 8002bb8:	ffffffff 			@ <UNDEFINED> instruction: 0xffffffff
 8002bbc:	ffffffff 			@ <UNDEFINED> instruction: 0xffffffff
 8002bc0:	ffffffff 			@ <UNDEFINED> instruction: 0xffffffff
 8002bc4:	ffffffff 			@ <UNDEFINED> instruction: 0xffffffff
 8002bc8:	ffffffff 			@ <UNDEFINED> instruction: 0xffffffff
 8002bcc:	ffffffff 			@ <UNDEFINED> instruction: 0xffffffff
 8002bd0:	ffffffff 			@ <UNDEFINED> instruction: 0xffffffff
 8002bd4:	ffffffff 			@ <UNDEFINED> instruction: 0xffffffff
 8002bd8:	ffffffff 			@ <UNDEFINED> instruction: 0xffffffff
 8002bdc:	ffffffff 			@ <UNDEFINED> instruction: 0xffffffff
 8002be0:	ffffffff 			@ <UNDEFINED> instruction: 0xffffffff
 8002be4:	ffffffff 			@ <UNDEFINED> instruction: 0xffffffff
 8002be8:	ffffffff 			@ <UNDEFINED> instruction: 0xffffffff
 8002bec:	ffffffff 			@ <UNDEFINED> instruction: 0xffffffff
 8002bf0:	ffffffff 			@ <UNDEFINED> instruction: 0xffffffff
 8002bf4:	ffffffff 			@ <UNDEFINED> instruction: 0xffffffff
 8002bf8:	ffffffff 			@ <UNDEFINED> instruction: 0xffffffff
 8002bfc:	ffffffff 			@ <UNDEFINED> instruction: 0xffffffff
 8002c00:	ffffffff 			@ <UNDEFINED> instruction: 0xffffffff
 8002c04:	ffffffff 			@ <UNDEFINED> instruction: 0xffffffff
 8002c08:	ffffffff 			@ <UNDEFINED> instruction: 0xffffffff
 8002c0c:	ffffffff 			@ <UNDEFINED> instruction: 0xffffffff
 8002c10:	ffffffff 			@ <UNDEFINED> instruction: 0xffffffff
 8002c14:	ffffffff 			@ <UNDEFINED> instruction: 0xffffffff
 8002c18:	ffffffff 			@ <UNDEFINED> instruction: 0xffffffff
 8002c1c:	ffffffff 			@ <UNDEFINED> instruction: 0xffffffff
 8002c20:	ffffffff 			@ <UNDEFINED> instruction: 0xffffffff
 8002c24:	ffffffff 			@ <UNDEFINED> instruction: 0xffffffff
 8002c28:	ffffffff 			@ <UNDEFINED> instruction: 0xffffffff
 8002c2c:	ffffffff 			@ <UNDEFINED> instruction: 0xffffffff
 8002c30:	ffffffff 			@ <UNDEFINED> instruction: 0xffffffff
 8002c34:	ffffffff 			@ <UNDEFINED> instruction: 0xffffffff
 8002c38:	ffffffff 			@ <UNDEFINED> instruction: 0xffffffff
 8002c3c:	ffffffff 			@ <UNDEFINED> instruction: 0xffffffff
 8002c40:	ffffffff 			@ <UNDEFINED> instruction: 0xffffffff
 8002c44:	ffffffff 			@ <UNDEFINED> instruction: 0xffffffff
 8002c48:	ffffffff 			@ <UNDEFINED> instruction: 0xffffffff
 8002c4c:	ffffffff 			@ <UNDEFINED> instruction: 0xffffffff
 8002c50:	ffffffff 			@ <UNDEFINED> instruction: 0xffffffff
 8002c54:	ffffffff 			@ <UNDEFINED> instruction: 0xffffffff
 8002c58:	ffffffff 			@ <UNDEFINED> instruction: 0xffffffff
 8002c5c:	ffffffff 			@ <UNDEFINED> instruction: 0xffffffff
 8002c60:	ffffffff 			@ <UNDEFINED> instruction: 0xffffffff
 8002c64:	ffffffff 			@ <UNDEFINED> instruction: 0xffffffff
 8002c68:	ffffffff 			@ <UNDEFINED> instruction: 0xffffffff
 8002c6c:	ffffffff 			@ <UNDEFINED> instruction: 0xffffffff
 8002c70:	ffffffff 			@ <UNDEFINED> instruction: 0xffffffff
 8002c74:	ffffffff 			@ <UNDEFINED> instruction: 0xffffffff
 8002c78:	ffffffff 			@ <UNDEFINED> instruction: 0xffffffff
 8002c7c:	ffffffff 			@ <UNDEFINED> instruction: 0xffffffff
 8002c80:	ffffffff 			@ <UNDEFINED> instruction: 0xffffffff
 8002c84:	ffffffff 			@ <UNDEFINED> instruction: 0xffffffff
 8002c88:	ffffffff 			@ <UNDEFINED> instruction: 0xffffffff
 8002c8c:	ffffffff 			@ <UNDEFINED> instruction: 0xffffffff
 8002c90:	ffffffff 			@ <UNDEFINED> instruction: 0xffffffff
 8002c94:	ffffffff 			@ <UNDEFINED> instruction: 0xffffffff
 8002c98:	ffffffff 			@ <UNDEFINED> instruction: 0xffffffff
 8002c9c:	ffffffff 			@ <UNDEFINED> instruction: 0xffffffff
 8002ca0:	ffffffff 			@ <UNDEFINED> instruction: 0xffffffff
 8002ca4:	ffffffff 			@ <UNDEFINED> instruction: 0xffffffff
 8002ca8:	ffffffff 			@ <UNDEFINED> instruction: 0xffffffff
 8002cac:	ffffffff 			@ <UNDEFINED> instruction: 0xffffffff
 8002cb0:	ffffffff 			@ <UNDEFINED> instruction: 0xffffffff
 8002cb4:	ffffffff 			@ <UNDEFINED> instruction: 0xffffffff
 8002cb8:	ffffffff 			@ <UNDEFINED> instruction: 0xffffffff
 8002cbc:	ffffffff 			@ <UNDEFINED> instruction: 0xffffffff
 8002cc0:	ffffffff 			@ <UNDEFINED> instruction: 0xffffffff
 8002cc4:	ffffffff 			@ <UNDEFINED> instruction: 0xffffffff
 8002cc8:	ffffffff 			@ <UNDEFINED> instruction: 0xffffffff
 8002ccc:	ffffffff 			@ <UNDEFINED> instruction: 0xffffffff
 8002cd0:	ffffffff 			@ <UNDEFINED> instruction: 0xffffffff
 8002cd4:	ffffffff 			@ <UNDEFINED> instruction: 0xffffffff
 8002cd8:	ffffffff 			@ <UNDEFINED> instruction: 0xffffffff
 8002cdc:	ffffffff 			@ <UNDEFINED> instruction: 0xffffffff
 8002ce0:	ffffffff 			@ <UNDEFINED> instruction: 0xffffffff
 8002ce4:	ffffffff 			@ <UNDEFINED> instruction: 0xffffffff
 8002ce8:	ffffffff 			@ <UNDEFINED> instruction: 0xffffffff
 8002cec:	ffffffff 			@ <UNDEFINED> instruction: 0xffffffff
 8002cf0:	ffffffff 			@ <UNDEFINED> instruction: 0xffffffff
 8002cf4:	ffffffff 			@ <UNDEFINED> instruction: 0xffffffff
 8002cf8:	ffffffff 			@ <UNDEFINED> instruction: 0xffffffff
 8002cfc:	ffffffff 			@ <UNDEFINED> instruction: 0xffffffff
 8002d00:	ffffffff 			@ <UNDEFINED> instruction: 0xffffffff
 8002d04:	ffffffff 			@ <UNDEFINED> instruction: 0xffffffff
 8002d08:	ffffffff 			@ <UNDEFINED> instruction: 0xffffffff
 8002d0c:	ffffffff 			@ <UNDEFINED> instruction: 0xffffffff
 8002d10:	ffffffff 			@ <UNDEFINED> instruction: 0xffffffff
 8002d14:	ffffffff 			@ <UNDEFINED> instruction: 0xffffffff
 8002d18:	ffffffff 			@ <UNDEFINED> instruction: 0xffffffff
 8002d1c:	ffffffff 			@ <UNDEFINED> instruction: 0xffffffff
 8002d20:	ffffffff 			@ <UNDEFINED> instruction: 0xffffffff
 8002d24:	ffffffff 			@ <UNDEFINED> instruction: 0xffffffff
 8002d28:	ffffffff 			@ <UNDEFINED> instruction: 0xffffffff
 8002d2c:	ffffffff 			@ <UNDEFINED> instruction: 0xffffffff
 8002d30:	ffffffff 			@ <UNDEFINED> instruction: 0xffffffff
 8002d34:	ffffffff 			@ <UNDEFINED> instruction: 0xffffffff
 8002d38:	ffffffff 			@ <UNDEFINED> instruction: 0xffffffff
 8002d3c:	ffffffff 			@ <UNDEFINED> instruction: 0xffffffff
 8002d40:	ffffffff 			@ <UNDEFINED> instruction: 0xffffffff
 8002d44:	ffffffff 			@ <UNDEFINED> instruction: 0xffffffff
 8002d48:	ffffffff 			@ <UNDEFINED> instruction: 0xffffffff
 8002d4c:	ffffffff 			@ <UNDEFINED> instruction: 0xffffffff
 8002d50:	ffffffff 			@ <UNDEFINED> instruction: 0xffffffff
 8002d54:	ffffffff 			@ <UNDEFINED> instruction: 0xffffffff
 8002d58:	ffffffff 			@ <UNDEFINED> instruction: 0xffffffff
 8002d5c:	ffffffff 			@ <UNDEFINED> instruction: 0xffffffff
 8002d60:	ffffffff 			@ <UNDEFINED> instruction: 0xffffffff
 8002d64:	ffffffff 			@ <UNDEFINED> instruction: 0xffffffff
 8002d68:	ffffffff 			@ <UNDEFINED> instruction: 0xffffffff
 8002d6c:	ffffffff 			@ <UNDEFINED> instruction: 0xffffffff
 8002d70:	ffffffff 			@ <UNDEFINED> instruction: 0xffffffff
 8002d74:	ffffffff 			@ <UNDEFINED> instruction: 0xffffffff
 8002d78:	ffffffff 			@ <UNDEFINED> instruction: 0xffffffff
 8002d7c:	ffffffff 			@ <UNDEFINED> instruction: 0xffffffff
 8002d80:	ffffffff 			@ <UNDEFINED> instruction: 0xffffffff
 8002d84:	ffffffff 			@ <UNDEFINED> instruction: 0xffffffff
 8002d88:	ffffffff 			@ <UNDEFINED> instruction: 0xffffffff
 8002d8c:	ffffffff 			@ <UNDEFINED> instruction: 0xffffffff
 8002d90:	ffffffff 			@ <UNDEFINED> instruction: 0xffffffff
 8002d94:	ffffffff 			@ <UNDEFINED> instruction: 0xffffffff
 8002d98:	ffffffff 			@ <UNDEFINED> instruction: 0xffffffff
 8002d9c:	ffffffff 			@ <UNDEFINED> instruction: 0xffffffff
 8002da0:	ffffffff 			@ <UNDEFINED> instruction: 0xffffffff
 8002da4:	ffffffff 			@ <UNDEFINED> instruction: 0xffffffff
 8002da8:	ffffffff 			@ <UNDEFINED> instruction: 0xffffffff
 8002dac:	ffffffff 			@ <UNDEFINED> instruction: 0xffffffff
 8002db0:	ffffffff 			@ <UNDEFINED> instruction: 0xffffffff
 8002db4:	ffffffff 			@ <UNDEFINED> instruction: 0xffffffff
 8002db8:	ffffffff 			@ <UNDEFINED> instruction: 0xffffffff
 8002dbc:	ffffffff 			@ <UNDEFINED> instruction: 0xffffffff
 8002dc0:	ffffffff 			@ <UNDEFINED> instruction: 0xffffffff
 8002dc4:	ffffffff 			@ <UNDEFINED> instruction: 0xffffffff
 8002dc8:	ffffffff 			@ <UNDEFINED> instruction: 0xffffffff
 8002dcc:	ffffffff 			@ <UNDEFINED> instruction: 0xffffffff
 8002dd0:	ffffffff 			@ <UNDEFINED> instruction: 0xffffffff
 8002dd4:	ffffffff 			@ <UNDEFINED> instruction: 0xffffffff
 8002dd8:	ffffffff 			@ <UNDEFINED> instruction: 0xffffffff
 8002ddc:	ffffffff 			@ <UNDEFINED> instruction: 0xffffffff
 8002de0:	ffffffff 			@ <UNDEFINED> instruction: 0xffffffff
 8002de4:	ffffffff 			@ <UNDEFINED> instruction: 0xffffffff
 8002de8:	ffffffff 			@ <UNDEFINED> instruction: 0xffffffff
 8002dec:	ffffffff 			@ <UNDEFINED> instruction: 0xffffffff
 8002df0:	ffffffff 			@ <UNDEFINED> instruction: 0xffffffff
 8002df4:	ffffffff 			@ <UNDEFINED> instruction: 0xffffffff
 8002df8:	ffffffff 			@ <UNDEFINED> instruction: 0xffffffff
 8002dfc:	ffffffff 			@ <UNDEFINED> instruction: 0xffffffff
 8002e00:	ffffffff 			@ <UNDEFINED> instruction: 0xffffffff
 8002e04:	ffffffff 			@ <UNDEFINED> instruction: 0xffffffff
 8002e08:	ffffffff 			@ <UNDEFINED> instruction: 0xffffffff
 8002e0c:	ffffffff 			@ <UNDEFINED> instruction: 0xffffffff
 8002e10:	ffffffff 			@ <UNDEFINED> instruction: 0xffffffff
 8002e14:	ffffffff 			@ <UNDEFINED> instruction: 0xffffffff
 8002e18:	ffffffff 			@ <UNDEFINED> instruction: 0xffffffff
 8002e1c:	ffffffff 			@ <UNDEFINED> instruction: 0xffffffff
 8002e20:	ffffffff 			@ <UNDEFINED> instruction: 0xffffffff
 8002e24:	ffffffff 			@ <UNDEFINED> instruction: 0xffffffff
 8002e28:	ffffffff 			@ <UNDEFINED> instruction: 0xffffffff
 8002e2c:	ffffffff 			@ <UNDEFINED> instruction: 0xffffffff
 8002e30:	ffffffff 			@ <UNDEFINED> instruction: 0xffffffff
 8002e34:	ffffffff 			@ <UNDEFINED> instruction: 0xffffffff
 8002e38:	ffffffff 			@ <UNDEFINED> instruction: 0xffffffff
 8002e3c:	ffffffff 			@ <UNDEFINED> instruction: 0xffffffff
 8002e40:	ffffffff 			@ <UNDEFINED> instruction: 0xffffffff
 8002e44:	ffffffff 			@ <UNDEFINED> instruction: 0xffffffff
 8002e48:	ffffffff 			@ <UNDEFINED> instruction: 0xffffffff
 8002e4c:	ffffffff 			@ <UNDEFINED> instruction: 0xffffffff
 8002e50:	ffffffff 			@ <UNDEFINED> instruction: 0xffffffff
 8002e54:	ffffffff 			@ <UNDEFINED> instruction: 0xffffffff
 8002e58:	ffffffff 			@ <UNDEFINED> instruction: 0xffffffff
 8002e5c:	ffffffff 			@ <UNDEFINED> instruction: 0xffffffff
 8002e60:	ffffffff 			@ <UNDEFINED> instruction: 0xffffffff
 8002e64:	ffffffff 			@ <UNDEFINED> instruction: 0xffffffff
 8002e68:	ffffffff 			@ <UNDEFINED> instruction: 0xffffffff
 8002e6c:	ffffffff 			@ <UNDEFINED> instruction: 0xffffffff
 8002e70:	ffffffff 			@ <UNDEFINED> instruction: 0xffffffff
 8002e74:	ffffffff 			@ <UNDEFINED> instruction: 0xffffffff
 8002e78:	ffffffff 			@ <UNDEFINED> instruction: 0xffffffff
 8002e7c:	ffffffff 			@ <UNDEFINED> instruction: 0xffffffff
 8002e80:	ffffffff 			@ <UNDEFINED> instruction: 0xffffffff
 8002e84:	ffffffff 			@ <UNDEFINED> instruction: 0xffffffff
 8002e88:	ffffffff 			@ <UNDEFINED> instruction: 0xffffffff
 8002e8c:	ffffffff 			@ <UNDEFINED> instruction: 0xffffffff
 8002e90:	ffffffff 			@ <UNDEFINED> instruction: 0xffffffff
 8002e94:	ffffffff 			@ <UNDEFINED> instruction: 0xffffffff
 8002e98:	ffffffff 			@ <UNDEFINED> instruction: 0xffffffff
 8002e9c:	ffffffff 			@ <UNDEFINED> instruction: 0xffffffff
 8002ea0:	ffffffff 			@ <UNDEFINED> instruction: 0xffffffff
 8002ea4:	ffffffff 			@ <UNDEFINED> instruction: 0xffffffff
 8002ea8:	ffffffff 			@ <UNDEFINED> instruction: 0xffffffff
 8002eac:	ffffffff 			@ <UNDEFINED> instruction: 0xffffffff
 8002eb0:	ffffffff 			@ <UNDEFINED> instruction: 0xffffffff
 8002eb4:	ffffffff 			@ <UNDEFINED> instruction: 0xffffffff
 8002eb8:	ffffffff 			@ <UNDEFINED> instruction: 0xffffffff
 8002ebc:	ffffffff 			@ <UNDEFINED> instruction: 0xffffffff
 8002ec0:	ffffffff 			@ <UNDEFINED> instruction: 0xffffffff
 8002ec4:	ffffffff 			@ <UNDEFINED> instruction: 0xffffffff
 8002ec8:	ffffffff 			@ <UNDEFINED> instruction: 0xffffffff
 8002ecc:	ffffffff 			@ <UNDEFINED> instruction: 0xffffffff
 8002ed0:	ffffffff 			@ <UNDEFINED> instruction: 0xffffffff
 8002ed4:	ffffffff 			@ <UNDEFINED> instruction: 0xffffffff
 8002ed8:	ffffffff 			@ <UNDEFINED> instruction: 0xffffffff
 8002edc:	ffffffff 			@ <UNDEFINED> instruction: 0xffffffff
 8002ee0:	ffffffff 			@ <UNDEFINED> instruction: 0xffffffff
 8002ee4:	ffffffff 			@ <UNDEFINED> instruction: 0xffffffff
 8002ee8:	ffffffff 			@ <UNDEFINED> instruction: 0xffffffff
 8002eec:	ffffffff 			@ <UNDEFINED> instruction: 0xffffffff
 8002ef0:	ffffffff 			@ <UNDEFINED> instruction: 0xffffffff
 8002ef4:	ffffffff 			@ <UNDEFINED> instruction: 0xffffffff
 8002ef8:	ffffffff 			@ <UNDEFINED> instruction: 0xffffffff
 8002efc:	ffffffff 			@ <UNDEFINED> instruction: 0xffffffff
 8002f00:	ffffffff 			@ <UNDEFINED> instruction: 0xffffffff
 8002f04:	ffffffff 			@ <UNDEFINED> instruction: 0xffffffff
 8002f08:	ffffffff 			@ <UNDEFINED> instruction: 0xffffffff
 8002f0c:	ffffffff 			@ <UNDEFINED> instruction: 0xffffffff
 8002f10:	ffffffff 			@ <UNDEFINED> instruction: 0xffffffff
 8002f14:	ffffffff 			@ <UNDEFINED> instruction: 0xffffffff
 8002f18:	ffffffff 			@ <UNDEFINED> instruction: 0xffffffff
 8002f1c:	ffffffff 			@ <UNDEFINED> instruction: 0xffffffff
 8002f20:	ffffffff 			@ <UNDEFINED> instruction: 0xffffffff
 8002f24:	ffffffff 			@ <UNDEFINED> instruction: 0xffffffff
 8002f28:	ffffffff 			@ <UNDEFINED> instruction: 0xffffffff
 8002f2c:	ffffffff 			@ <UNDEFINED> instruction: 0xffffffff
 8002f30:	ffffffff 			@ <UNDEFINED> instruction: 0xffffffff
 8002f34:	ffffffff 			@ <UNDEFINED> instruction: 0xffffffff
 8002f38:	ffffffff 			@ <UNDEFINED> instruction: 0xffffffff
 8002f3c:	ffffffff 			@ <UNDEFINED> instruction: 0xffffffff
 8002f40:	ffffffff 			@ <UNDEFINED> instruction: 0xffffffff
 8002f44:	ffffffff 			@ <UNDEFINED> instruction: 0xffffffff
 8002f48:	ffffffff 			@ <UNDEFINED> instruction: 0xffffffff
 8002f4c:	ffffffff 			@ <UNDEFINED> instruction: 0xffffffff
 8002f50:	ffffffff 			@ <UNDEFINED> instruction: 0xffffffff
 8002f54:	ffffffff 			@ <UNDEFINED> instruction: 0xffffffff
 8002f58:	ffffffff 			@ <UNDEFINED> instruction: 0xffffffff
 8002f5c:	ffffffff 			@ <UNDEFINED> instruction: 0xffffffff
 8002f60:	ffffffff 			@ <UNDEFINED> instruction: 0xffffffff
 8002f64:	ffffffff 			@ <UNDEFINED> instruction: 0xffffffff
 8002f68:	ffffffff 			@ <UNDEFINED> instruction: 0xffffffff
 8002f6c:	ffffffff 			@ <UNDEFINED> instruction: 0xffffffff
 8002f70:	ffffffff 			@ <UNDEFINED> instruction: 0xffffffff
 8002f74:	ffffffff 			@ <UNDEFINED> instruction: 0xffffffff
 8002f78:	ffffffff 			@ <UNDEFINED> instruction: 0xffffffff
 8002f7c:	ffffffff 			@ <UNDEFINED> instruction: 0xffffffff
 8002f80:	ffffffff 			@ <UNDEFINED> instruction: 0xffffffff
 8002f84:	ffffffff 			@ <UNDEFINED> instruction: 0xffffffff
 8002f88:	ffffffff 			@ <UNDEFINED> instruction: 0xffffffff
 8002f8c:	ffffffff 			@ <UNDEFINED> instruction: 0xffffffff
 8002f90:	ffffffff 			@ <UNDEFINED> instruction: 0xffffffff
 8002f94:	ffffffff 			@ <UNDEFINED> instruction: 0xffffffff
 8002f98:	ffffffff 			@ <UNDEFINED> instruction: 0xffffffff
 8002f9c:	ffffffff 			@ <UNDEFINED> instruction: 0xffffffff
 8002fa0:	ffffffff 			@ <UNDEFINED> instruction: 0xffffffff
 8002fa4:	ffffffff 			@ <UNDEFINED> instruction: 0xffffffff
 8002fa8:	ffffffff 			@ <UNDEFINED> instruction: 0xffffffff
 8002fac:	ffffffff 			@ <UNDEFINED> instruction: 0xffffffff
 8002fb0:	ffffffff 			@ <UNDEFINED> instruction: 0xffffffff
 8002fb4:	ffffffff 			@ <UNDEFINED> instruction: 0xffffffff
 8002fb8:	ffffffff 			@ <UNDEFINED> instruction: 0xffffffff
 8002fbc:	ffffffff 			@ <UNDEFINED> instruction: 0xffffffff
 8002fc0:	ffffffff 			@ <UNDEFINED> instruction: 0xffffffff
 8002fc4:	ffffffff 			@ <UNDEFINED> instruction: 0xffffffff
 8002fc8:	ffffffff 			@ <UNDEFINED> instruction: 0xffffffff
 8002fcc:	ffffffff 			@ <UNDEFINED> instruction: 0xffffffff
 8002fd0:	ffffffff 			@ <UNDEFINED> instruction: 0xffffffff
 8002fd4:	ffffffff 			@ <UNDEFINED> instruction: 0xffffffff
 8002fd8:	ffffffff 			@ <UNDEFINED> instruction: 0xffffffff
 8002fdc:	ffffffff 			@ <UNDEFINED> instruction: 0xffffffff
 8002fe0:	ffffffff 			@ <UNDEFINED> instruction: 0xffffffff
 8002fe4:	ffffffff 			@ <UNDEFINED> instruction: 0xffffffff
 8002fe8:	ffffffff 			@ <UNDEFINED> instruction: 0xffffffff
 8002fec:	ffffffff 			@ <UNDEFINED> instruction: 0xffffffff
 8002ff0:	ffffffff 			@ <UNDEFINED> instruction: 0xffffffff
 8002ff4:	ffffffff 			@ <UNDEFINED> instruction: 0xffffffff
 8002ff8:	ffffffff 			@ <UNDEFINED> instruction: 0xffffffff
 8002ffc:	ffffffff 			@ <UNDEFINED> instruction: 0xffffffff
 8003000:	ffffffff 			@ <UNDEFINED> instruction: 0xffffffff
 8003004:	ffffffff 			@ <UNDEFINED> instruction: 0xffffffff
 8003008:	ffffffff 			@ <UNDEFINED> instruction: 0xffffffff
 800300c:	ffffffff 			@ <UNDEFINED> instruction: 0xffffffff
 8003010:	ffffffff 			@ <UNDEFINED> instruction: 0xffffffff
 8003014:	ffffffff 			@ <UNDEFINED> instruction: 0xffffffff
 8003018:	ffffffff 			@ <UNDEFINED> instruction: 0xffffffff
 800301c:	ffffffff 			@ <UNDEFINED> instruction: 0xffffffff
 8003020:	ffffffff 			@ <UNDEFINED> instruction: 0xffffffff
 8003024:	ffffffff 			@ <UNDEFINED> instruction: 0xffffffff
 8003028:	ffffffff 			@ <UNDEFINED> instruction: 0xffffffff
 800302c:	ffffffff 			@ <UNDEFINED> instruction: 0xffffffff
 8003030:	ffffffff 			@ <UNDEFINED> instruction: 0xffffffff
 8003034:	ffffffff 			@ <UNDEFINED> instruction: 0xffffffff
 8003038:	ffffffff 			@ <UNDEFINED> instruction: 0xffffffff
 800303c:	ffffffff 			@ <UNDEFINED> instruction: 0xffffffff
 8003040:	ffffffff 			@ <UNDEFINED> instruction: 0xffffffff
 8003044:	ffffffff 			@ <UNDEFINED> instruction: 0xffffffff
 8003048:	ffffffff 			@ <UNDEFINED> instruction: 0xffffffff
 800304c:	ffffffff 			@ <UNDEFINED> instruction: 0xffffffff
 8003050:	ffffffff 			@ <UNDEFINED> instruction: 0xffffffff
 8003054:	ffffffff 			@ <UNDEFINED> instruction: 0xffffffff
 8003058:	ffffffff 			@ <UNDEFINED> instruction: 0xffffffff
 800305c:	ffffffff 			@ <UNDEFINED> instruction: 0xffffffff
 8003060:	ffffffff 			@ <UNDEFINED> instruction: 0xffffffff
 8003064:	ffffffff 			@ <UNDEFINED> instruction: 0xffffffff
 8003068:	ffffffff 			@ <UNDEFINED> instruction: 0xffffffff
 800306c:	ffffffff 			@ <UNDEFINED> instruction: 0xffffffff
 8003070:	ffffffff 			@ <UNDEFINED> instruction: 0xffffffff
 8003074:	ffffffff 			@ <UNDEFINED> instruction: 0xffffffff
 8003078:	ffffffff 			@ <UNDEFINED> instruction: 0xffffffff
 800307c:	ffffffff 			@ <UNDEFINED> instruction: 0xffffffff
 8003080:	ffffffff 			@ <UNDEFINED> instruction: 0xffffffff
 8003084:	ffffffff 			@ <UNDEFINED> instruction: 0xffffffff
 8003088:	ffffffff 			@ <UNDEFINED> instruction: 0xffffffff
 800308c:	ffffffff 			@ <UNDEFINED> instruction: 0xffffffff
 8003090:	ffffffff 			@ <UNDEFINED> instruction: 0xffffffff
 8003094:	ffffffff 			@ <UNDEFINED> instruction: 0xffffffff
 8003098:	ffffffff 			@ <UNDEFINED> instruction: 0xffffffff
 800309c:	ffffffff 			@ <UNDEFINED> instruction: 0xffffffff
 80030a0:	ffffffff 			@ <UNDEFINED> instruction: 0xffffffff
 80030a4:	ffffffff 			@ <UNDEFINED> instruction: 0xffffffff
 80030a8:	ffffffff 			@ <UNDEFINED> instruction: 0xffffffff
 80030ac:	ffffffff 			@ <UNDEFINED> instruction: 0xffffffff
 80030b0:	ffffffff 			@ <UNDEFINED> instruction: 0xffffffff
 80030b4:	ffffffff 			@ <UNDEFINED> instruction: 0xffffffff
 80030b8:	ffffffff 			@ <UNDEFINED> instruction: 0xffffffff
 80030bc:	ffffffff 			@ <UNDEFINED> instruction: 0xffffffff
 80030c0:	ffffffff 			@ <UNDEFINED> instruction: 0xffffffff
 80030c4:	ffffffff 			@ <UNDEFINED> instruction: 0xffffffff
 80030c8:	ffffffff 			@ <UNDEFINED> instruction: 0xffffffff
 80030cc:	ffffffff 			@ <UNDEFINED> instruction: 0xffffffff
 80030d0:	ffffffff 			@ <UNDEFINED> instruction: 0xffffffff
 80030d4:	ffffffff 			@ <UNDEFINED> instruction: 0xffffffff
 80030d8:	ffffffff 			@ <UNDEFINED> instruction: 0xffffffff
 80030dc:	ffffffff 			@ <UNDEFINED> instruction: 0xffffffff
 80030e0:	ffffffff 			@ <UNDEFINED> instruction: 0xffffffff
 80030e4:	ffffffff 			@ <UNDEFINED> instruction: 0xffffffff
 80030e8:	ffffffff 			@ <UNDEFINED> instruction: 0xffffffff
 80030ec:	ffffffff 			@ <UNDEFINED> instruction: 0xffffffff
 80030f0:	ffffffff 			@ <UNDEFINED> instruction: 0xffffffff
 80030f4:	ffffffff 			@ <UNDEFINED> instruction: 0xffffffff
 80030f8:	ffffffff 			@ <UNDEFINED> instruction: 0xffffffff
 80030fc:	ffffffff 			@ <UNDEFINED> instruction: 0xffffffff
 8003100:	ffffffff 			@ <UNDEFINED> instruction: 0xffffffff
 8003104:	ffffffff 			@ <UNDEFINED> instruction: 0xffffffff
 8003108:	ffffffff 			@ <UNDEFINED> instruction: 0xffffffff
 800310c:	ffffffff 			@ <UNDEFINED> instruction: 0xffffffff
 8003110:	ffffffff 			@ <UNDEFINED> instruction: 0xffffffff
 8003114:	ffffffff 			@ <UNDEFINED> instruction: 0xffffffff
 8003118:	ffffffff 			@ <UNDEFINED> instruction: 0xffffffff
 800311c:	ffffffff 			@ <UNDEFINED> instruction: 0xffffffff
 8003120:	ffffffff 			@ <UNDEFINED> instruction: 0xffffffff
 8003124:	ffffffff 			@ <UNDEFINED> instruction: 0xffffffff
 8003128:	ffffffff 			@ <UNDEFINED> instruction: 0xffffffff
 800312c:	ffffffff 			@ <UNDEFINED> instruction: 0xffffffff
 8003130:	ffffffff 			@ <UNDEFINED> instruction: 0xffffffff
 8003134:	ffffffff 			@ <UNDEFINED> instruction: 0xffffffff
 8003138:	ffffffff 			@ <UNDEFINED> instruction: 0xffffffff
 800313c:	ffffffff 			@ <UNDEFINED> instruction: 0xffffffff
 8003140:	ffffffff 			@ <UNDEFINED> instruction: 0xffffffff
 8003144:	ffffffff 			@ <UNDEFINED> instruction: 0xffffffff
 8003148:	ffffffff 			@ <UNDEFINED> instruction: 0xffffffff
 800314c:	ffffffff 			@ <UNDEFINED> instruction: 0xffffffff
 8003150:	ffffffff 			@ <UNDEFINED> instruction: 0xffffffff
 8003154:	ffffffff 			@ <UNDEFINED> instruction: 0xffffffff
 8003158:	ffffffff 			@ <UNDEFINED> instruction: 0xffffffff
 800315c:	ffffffff 			@ <UNDEFINED> instruction: 0xffffffff
 8003160:	ffffffff 			@ <UNDEFINED> instruction: 0xffffffff
 8003164:	ffffffff 			@ <UNDEFINED> instruction: 0xffffffff
 8003168:	ffffffff 			@ <UNDEFINED> instruction: 0xffffffff
 800316c:	ffffffff 			@ <UNDEFINED> instruction: 0xffffffff
 8003170:	ffffffff 			@ <UNDEFINED> instruction: 0xffffffff
 8003174:	ffffffff 			@ <UNDEFINED> instruction: 0xffffffff
 8003178:	ffffffff 			@ <UNDEFINED> instruction: 0xffffffff
 800317c:	ffffffff 			@ <UNDEFINED> instruction: 0xffffffff
 8003180:	ffffffff 			@ <UNDEFINED> instruction: 0xffffffff
 8003184:	ffffffff 			@ <UNDEFINED> instruction: 0xffffffff
 8003188:	ffffffff 			@ <UNDEFINED> instruction: 0xffffffff
 800318c:	ffffffff 			@ <UNDEFINED> instruction: 0xffffffff
 8003190:	ffffffff 			@ <UNDEFINED> instruction: 0xffffffff
 8003194:	ffffffff 			@ <UNDEFINED> instruction: 0xffffffff
 8003198:	ffffffff 			@ <UNDEFINED> instruction: 0xffffffff
 800319c:	ffffffff 			@ <UNDEFINED> instruction: 0xffffffff
 80031a0:	ffffffff 			@ <UNDEFINED> instruction: 0xffffffff
 80031a4:	ffffffff 			@ <UNDEFINED> instruction: 0xffffffff
 80031a8:	ffffffff 			@ <UNDEFINED> instruction: 0xffffffff
 80031ac:	ffffffff 			@ <UNDEFINED> instruction: 0xffffffff
 80031b0:	ffffffff 			@ <UNDEFINED> instruction: 0xffffffff
 80031b4:	ffffffff 			@ <UNDEFINED> instruction: 0xffffffff
 80031b8:	ffffffff 			@ <UNDEFINED> instruction: 0xffffffff
 80031bc:	ffffffff 			@ <UNDEFINED> instruction: 0xffffffff
 80031c0:	ffffffff 			@ <UNDEFINED> instruction: 0xffffffff
 80031c4:	ffffffff 			@ <UNDEFINED> instruction: 0xffffffff
 80031c8:	ffffffff 			@ <UNDEFINED> instruction: 0xffffffff
 80031cc:	ffffffff 			@ <UNDEFINED> instruction: 0xffffffff
 80031d0:	ffffffff 			@ <UNDEFINED> instruction: 0xffffffff
 80031d4:	ffffffff 			@ <UNDEFINED> instruction: 0xffffffff
 80031d8:	ffffffff 			@ <UNDEFINED> instruction: 0xffffffff
 80031dc:	ffffffff 			@ <UNDEFINED> instruction: 0xffffffff
 80031e0:	ffffffff 			@ <UNDEFINED> instruction: 0xffffffff
 80031e4:	ffffffff 			@ <UNDEFINED> instruction: 0xffffffff
 80031e8:	ffffffff 			@ <UNDEFINED> instruction: 0xffffffff
 80031ec:	ffffffff 			@ <UNDEFINED> instruction: 0xffffffff
 80031f0:	ffffffff 			@ <UNDEFINED> instruction: 0xffffffff
 80031f4:	ffffffff 			@ <UNDEFINED> instruction: 0xffffffff
 80031f8:	ffffffff 			@ <UNDEFINED> instruction: 0xffffffff
 80031fc:	ffffffff 			@ <UNDEFINED> instruction: 0xffffffff
 8003200:	ffffffff 			@ <UNDEFINED> instruction: 0xffffffff
 8003204:	ffffffff 			@ <UNDEFINED> instruction: 0xffffffff
 8003208:	ffffffff 			@ <UNDEFINED> instruction: 0xffffffff
 800320c:	ffffffff 			@ <UNDEFINED> instruction: 0xffffffff
 8003210:	ffffffff 			@ <UNDEFINED> instruction: 0xffffffff
 8003214:	ffffffff 			@ <UNDEFINED> instruction: 0xffffffff
 8003218:	ffffffff 			@ <UNDEFINED> instruction: 0xffffffff
 800321c:	ffffffff 			@ <UNDEFINED> instruction: 0xffffffff
 8003220:	ffffffff 			@ <UNDEFINED> instruction: 0xffffffff
 8003224:	ffffffff 			@ <UNDEFINED> instruction: 0xffffffff
 8003228:	ffffffff 			@ <UNDEFINED> instruction: 0xffffffff
 800322c:	ffffffff 			@ <UNDEFINED> instruction: 0xffffffff
 8003230:	ffffffff 			@ <UNDEFINED> instruction: 0xffffffff
 8003234:	ffffffff 			@ <UNDEFINED> instruction: 0xffffffff
 8003238:	ffffffff 			@ <UNDEFINED> instruction: 0xffffffff
 800323c:	ffffffff 			@ <UNDEFINED> instruction: 0xffffffff
 8003240:	ffffffff 			@ <UNDEFINED> instruction: 0xffffffff
 8003244:	ffffffff 			@ <UNDEFINED> instruction: 0xffffffff
 8003248:	ffffffff 			@ <UNDEFINED> instruction: 0xffffffff
 800324c:	ffffffff 			@ <UNDEFINED> instruction: 0xffffffff
 8003250:	ffffffff 			@ <UNDEFINED> instruction: 0xffffffff
 8003254:	ffffffff 			@ <UNDEFINED> instruction: 0xffffffff
 8003258:	ffffffff 			@ <UNDEFINED> instruction: 0xffffffff
 800325c:	ffffffff 			@ <UNDEFINED> instruction: 0xffffffff
 8003260:	ffffffff 			@ <UNDEFINED> instruction: 0xffffffff
 8003264:	ffffffff 			@ <UNDEFINED> instruction: 0xffffffff
 8003268:	ffffffff 			@ <UNDEFINED> instruction: 0xffffffff
 800326c:	ffffffff 			@ <UNDEFINED> instruction: 0xffffffff
 8003270:	ffffffff 			@ <UNDEFINED> instruction: 0xffffffff
 8003274:	ffffffff 			@ <UNDEFINED> instruction: 0xffffffff
 8003278:	ffffffff 			@ <UNDEFINED> instruction: 0xffffffff
 800327c:	ffffffff 			@ <UNDEFINED> instruction: 0xffffffff
 8003280:	ffffffff 			@ <UNDEFINED> instruction: 0xffffffff
 8003284:	ffffffff 			@ <UNDEFINED> instruction: 0xffffffff
 8003288:	ffffffff 			@ <UNDEFINED> instruction: 0xffffffff
 800328c:	ffffffff 			@ <UNDEFINED> instruction: 0xffffffff
 8003290:	ffffffff 			@ <UNDEFINED> instruction: 0xffffffff
 8003294:	ffffffff 			@ <UNDEFINED> instruction: 0xffffffff
 8003298:	ffffffff 			@ <UNDEFINED> instruction: 0xffffffff
 800329c:	ffffffff 			@ <UNDEFINED> instruction: 0xffffffff
 80032a0:	ffffffff 			@ <UNDEFINED> instruction: 0xffffffff
 80032a4:	ffffffff 			@ <UNDEFINED> instruction: 0xffffffff
 80032a8:	ffffffff 			@ <UNDEFINED> instruction: 0xffffffff
 80032ac:	ffffffff 			@ <UNDEFINED> instruction: 0xffffffff
 80032b0:	ffffffff 			@ <UNDEFINED> instruction: 0xffffffff
 80032b4:	ffffffff 			@ <UNDEFINED> instruction: 0xffffffff
 80032b8:	ffffffff 			@ <UNDEFINED> instruction: 0xffffffff
 80032bc:	ffffffff 			@ <UNDEFINED> instruction: 0xffffffff
 80032c0:	ffffffff 			@ <UNDEFINED> instruction: 0xffffffff
 80032c4:	ffffffff 			@ <UNDEFINED> instruction: 0xffffffff
 80032c8:	ffffffff 			@ <UNDEFINED> instruction: 0xffffffff
 80032cc:	ffffffff 			@ <UNDEFINED> instruction: 0xffffffff
 80032d0:	ffffffff 			@ <UNDEFINED> instruction: 0xffffffff
 80032d4:	ffffffff 			@ <UNDEFINED> instruction: 0xffffffff
 80032d8:	ffffffff 			@ <UNDEFINED> instruction: 0xffffffff
 80032dc:	ffffffff 			@ <UNDEFINED> instruction: 0xffffffff
 80032e0:	ffffffff 			@ <UNDEFINED> instruction: 0xffffffff
 80032e4:	ffffffff 			@ <UNDEFINED> instruction: 0xffffffff
 80032e8:	ffffffff 			@ <UNDEFINED> instruction: 0xffffffff
 80032ec:	ffffffff 			@ <UNDEFINED> instruction: 0xffffffff
 80032f0:	ffffffff 			@ <UNDEFINED> instruction: 0xffffffff
 80032f4:	ffffffff 			@ <UNDEFINED> instruction: 0xffffffff
 80032f8:	ffffffff 			@ <UNDEFINED> instruction: 0xffffffff
 80032fc:	ffffffff 			@ <UNDEFINED> instruction: 0xffffffff
 8003300:	ffffffff 			@ <UNDEFINED> instruction: 0xffffffff
 8003304:	ffffffff 			@ <UNDEFINED> instruction: 0xffffffff
 8003308:	ffffffff 			@ <UNDEFINED> instruction: 0xffffffff
 800330c:	ffffffff 			@ <UNDEFINED> instruction: 0xffffffff
 8003310:	ffffffff 			@ <UNDEFINED> instruction: 0xffffffff
 8003314:	ffffffff 			@ <UNDEFINED> instruction: 0xffffffff
 8003318:	ffffffff 			@ <UNDEFINED> instruction: 0xffffffff
 800331c:	ffffffff 			@ <UNDEFINED> instruction: 0xffffffff
 8003320:	ffffffff 			@ <UNDEFINED> instruction: 0xffffffff
 8003324:	ffffffff 			@ <UNDEFINED> instruction: 0xffffffff
 8003328:	ffffffff 			@ <UNDEFINED> instruction: 0xffffffff
 800332c:	ffffffff 			@ <UNDEFINED> instruction: 0xffffffff
 8003330:	ffffffff 			@ <UNDEFINED> instruction: 0xffffffff
 8003334:	ffffffff 			@ <UNDEFINED> instruction: 0xffffffff
 8003338:	ffffffff 			@ <UNDEFINED> instruction: 0xffffffff
 800333c:	ffffffff 			@ <UNDEFINED> instruction: 0xffffffff
 8003340:	ffffffff 			@ <UNDEFINED> instruction: 0xffffffff
 8003344:	ffffffff 			@ <UNDEFINED> instruction: 0xffffffff
 8003348:	ffffffff 			@ <UNDEFINED> instruction: 0xffffffff
 800334c:	ffffffff 			@ <UNDEFINED> instruction: 0xffffffff
 8003350:	ffffffff 			@ <UNDEFINED> instruction: 0xffffffff
 8003354:	ffffffff 			@ <UNDEFINED> instruction: 0xffffffff
 8003358:	ffffffff 			@ <UNDEFINED> instruction: 0xffffffff
 800335c:	ffffffff 			@ <UNDEFINED> instruction: 0xffffffff
 8003360:	ffffffff 			@ <UNDEFINED> instruction: 0xffffffff
 8003364:	ffffffff 			@ <UNDEFINED> instruction: 0xffffffff
 8003368:	ffffffff 			@ <UNDEFINED> instruction: 0xffffffff
 800336c:	ffffffff 			@ <UNDEFINED> instruction: 0xffffffff
 8003370:	ffffffff 			@ <UNDEFINED> instruction: 0xffffffff
 8003374:	ffffffff 			@ <UNDEFINED> instruction: 0xffffffff
 8003378:	ffffffff 			@ <UNDEFINED> instruction: 0xffffffff
 800337c:	ffffffff 			@ <UNDEFINED> instruction: 0xffffffff
 8003380:	ffffffff 			@ <UNDEFINED> instruction: 0xffffffff
 8003384:	ffffffff 			@ <UNDEFINED> instruction: 0xffffffff
 8003388:	ffffffff 			@ <UNDEFINED> instruction: 0xffffffff
 800338c:	ffffffff 			@ <UNDEFINED> instruction: 0xffffffff
 8003390:	ffffffff 			@ <UNDEFINED> instruction: 0xffffffff
 8003394:	ffffffff 			@ <UNDEFINED> instruction: 0xffffffff
 8003398:	ffffffff 			@ <UNDEFINED> instruction: 0xffffffff
 800339c:	ffffffff 			@ <UNDEFINED> instruction: 0xffffffff
 80033a0:	ffffffff 			@ <UNDEFINED> instruction: 0xffffffff
 80033a4:	ffffffff 			@ <UNDEFINED> instruction: 0xffffffff
 80033a8:	ffffffff 			@ <UNDEFINED> instruction: 0xffffffff
 80033ac:	ffffffff 			@ <UNDEFINED> instruction: 0xffffffff
 80033b0:	ffffffff 			@ <UNDEFINED> instruction: 0xffffffff
 80033b4:	ffffffff 			@ <UNDEFINED> instruction: 0xffffffff
 80033b8:	ffffffff 			@ <UNDEFINED> instruction: 0xffffffff
 80033bc:	ffffffff 			@ <UNDEFINED> instruction: 0xffffffff
 80033c0:	ffffffff 			@ <UNDEFINED> instruction: 0xffffffff
 80033c4:	ffffffff 			@ <UNDEFINED> instruction: 0xffffffff
 80033c8:	ffffffff 			@ <UNDEFINED> instruction: 0xffffffff
 80033cc:	ffffffff 			@ <UNDEFINED> instruction: 0xffffffff
 80033d0:	ffffffff 			@ <UNDEFINED> instruction: 0xffffffff
 80033d4:	ffffffff 			@ <UNDEFINED> instruction: 0xffffffff
 80033d8:	ffffffff 			@ <UNDEFINED> instruction: 0xffffffff
 80033dc:	ffffffff 			@ <UNDEFINED> instruction: 0xffffffff
 80033e0:	ffffffff 			@ <UNDEFINED> instruction: 0xffffffff
 80033e4:	ffffffff 			@ <UNDEFINED> instruction: 0xffffffff
 80033e8:	ffffffff 			@ <UNDEFINED> instruction: 0xffffffff
 80033ec:	ffffffff 			@ <UNDEFINED> instruction: 0xffffffff
 80033f0:	ffffffff 			@ <UNDEFINED> instruction: 0xffffffff
 80033f4:	ffffffff 			@ <UNDEFINED> instruction: 0xffffffff
 80033f8:	ffffffff 			@ <UNDEFINED> instruction: 0xffffffff
 80033fc:	ffffffff 			@ <UNDEFINED> instruction: 0xffffffff
 8003400:	ffffffff 			@ <UNDEFINED> instruction: 0xffffffff
 8003404:	ffffffff 			@ <UNDEFINED> instruction: 0xffffffff
 8003408:	ffffffff 			@ <UNDEFINED> instruction: 0xffffffff
 800340c:	ffffffff 			@ <UNDEFINED> instruction: 0xffffffff
 8003410:	ffffffff 			@ <UNDEFINED> instruction: 0xffffffff
 8003414:	ffffffff 			@ <UNDEFINED> instruction: 0xffffffff
 8003418:	ffffffff 			@ <UNDEFINED> instruction: 0xffffffff
 800341c:	ffffffff 			@ <UNDEFINED> instruction: 0xffffffff
 8003420:	ffffffff 			@ <UNDEFINED> instruction: 0xffffffff
 8003424:	ffffffff 			@ <UNDEFINED> instruction: 0xffffffff
 8003428:	ffffffff 			@ <UNDEFINED> instruction: 0xffffffff
 800342c:	ffffffff 			@ <UNDEFINED> instruction: 0xffffffff
 8003430:	ffffffff 			@ <UNDEFINED> instruction: 0xffffffff
 8003434:	ffffffff 			@ <UNDEFINED> instruction: 0xffffffff
 8003438:	ffffffff 			@ <UNDEFINED> instruction: 0xffffffff
 800343c:	ffffffff 			@ <UNDEFINED> instruction: 0xffffffff
 8003440:	ffffffff 			@ <UNDEFINED> instruction: 0xffffffff
 8003444:	ffffffff 			@ <UNDEFINED> instruction: 0xffffffff
 8003448:	ffffffff 			@ <UNDEFINED> instruction: 0xffffffff
 800344c:	ffffffff 			@ <UNDEFINED> instruction: 0xffffffff
 8003450:	ffffffff 			@ <UNDEFINED> instruction: 0xffffffff
 8003454:	ffffffff 			@ <UNDEFINED> instruction: 0xffffffff
 8003458:	ffffffff 			@ <UNDEFINED> instruction: 0xffffffff
 800345c:	ffffffff 			@ <UNDEFINED> instruction: 0xffffffff
 8003460:	ffffffff 			@ <UNDEFINED> instruction: 0xffffffff
 8003464:	ffffffff 			@ <UNDEFINED> instruction: 0xffffffff
 8003468:	ffffffff 			@ <UNDEFINED> instruction: 0xffffffff
 800346c:	ffffffff 			@ <UNDEFINED> instruction: 0xffffffff
 8003470:	ffffffff 			@ <UNDEFINED> instruction: 0xffffffff
 8003474:	ffffffff 			@ <UNDEFINED> instruction: 0xffffffff
 8003478:	ffffffff 			@ <UNDEFINED> instruction: 0xffffffff
 800347c:	ffffffff 			@ <UNDEFINED> instruction: 0xffffffff
 8003480:	ffffffff 			@ <UNDEFINED> instruction: 0xffffffff
 8003484:	ffffffff 			@ <UNDEFINED> instruction: 0xffffffff
 8003488:	ffffffff 			@ <UNDEFINED> instruction: 0xffffffff
 800348c:	ffffffff 			@ <UNDEFINED> instruction: 0xffffffff
 8003490:	ffffffff 			@ <UNDEFINED> instruction: 0xffffffff
 8003494:	ffffffff 			@ <UNDEFINED> instruction: 0xffffffff
 8003498:	ffffffff 			@ <UNDEFINED> instruction: 0xffffffff
 800349c:	ffffffff 			@ <UNDEFINED> instruction: 0xffffffff
 80034a0:	ffffffff 			@ <UNDEFINED> instruction: 0xffffffff
 80034a4:	ffffffff 			@ <UNDEFINED> instruction: 0xffffffff
 80034a8:	ffffffff 			@ <UNDEFINED> instruction: 0xffffffff
 80034ac:	ffffffff 			@ <UNDEFINED> instruction: 0xffffffff
 80034b0:	ffffffff 			@ <UNDEFINED> instruction: 0xffffffff
 80034b4:	ffffffff 			@ <UNDEFINED> instruction: 0xffffffff
 80034b8:	ffffffff 			@ <UNDEFINED> instruction: 0xffffffff
 80034bc:	ffffffff 			@ <UNDEFINED> instruction: 0xffffffff
 80034c0:	ffffffff 			@ <UNDEFINED> instruction: 0xffffffff
 80034c4:	ffffffff 			@ <UNDEFINED> instruction: 0xffffffff
 80034c8:	ffffffff 			@ <UNDEFINED> instruction: 0xffffffff
 80034cc:	ffffffff 			@ <UNDEFINED> instruction: 0xffffffff
 80034d0:	ffffffff 			@ <UNDEFINED> instruction: 0xffffffff
 80034d4:	ffffffff 			@ <UNDEFINED> instruction: 0xffffffff
 80034d8:	ffffffff 			@ <UNDEFINED> instruction: 0xffffffff
 80034dc:	ffffffff 			@ <UNDEFINED> instruction: 0xffffffff
 80034e0:	ffffffff 			@ <UNDEFINED> instruction: 0xffffffff
 80034e4:	ffffffff 			@ <UNDEFINED> instruction: 0xffffffff
 80034e8:	ffffffff 			@ <UNDEFINED> instruction: 0xffffffff
 80034ec:	ffffffff 			@ <UNDEFINED> instruction: 0xffffffff
 80034f0:	ffffffff 			@ <UNDEFINED> instruction: 0xffffffff
 80034f4:	ffffffff 			@ <UNDEFINED> instruction: 0xffffffff
 80034f8:	ffffffff 			@ <UNDEFINED> instruction: 0xffffffff
 80034fc:	ffffffff 			@ <UNDEFINED> instruction: 0xffffffff
 8003500:	ffffffff 			@ <UNDEFINED> instruction: 0xffffffff
 8003504:	ffffffff 			@ <UNDEFINED> instruction: 0xffffffff
 8003508:	ffffffff 			@ <UNDEFINED> instruction: 0xffffffff
 800350c:	ffffffff 			@ <UNDEFINED> instruction: 0xffffffff
 8003510:	ffffffff 			@ <UNDEFINED> instruction: 0xffffffff
 8003514:	ffffffff 			@ <UNDEFINED> instruction: 0xffffffff
 8003518:	ffffffff 			@ <UNDEFINED> instruction: 0xffffffff
 800351c:	ffffffff 			@ <UNDEFINED> instruction: 0xffffffff
 8003520:	ffffffff 			@ <UNDEFINED> instruction: 0xffffffff
 8003524:	ffffffff 			@ <UNDEFINED> instruction: 0xffffffff
 8003528:	ffffffff 			@ <UNDEFINED> instruction: 0xffffffff
 800352c:	ffffffff 			@ <UNDEFINED> instruction: 0xffffffff
 8003530:	ffffffff 			@ <UNDEFINED> instruction: 0xffffffff
 8003534:	ffffffff 			@ <UNDEFINED> instruction: 0xffffffff
 8003538:	ffffffff 			@ <UNDEFINED> instruction: 0xffffffff
 800353c:	ffffffff 			@ <UNDEFINED> instruction: 0xffffffff
 8003540:	ffffffff 			@ <UNDEFINED> instruction: 0xffffffff
 8003544:	ffffffff 			@ <UNDEFINED> instruction: 0xffffffff
 8003548:	ffffffff 			@ <UNDEFINED> instruction: 0xffffffff
 800354c:	ffffffff 			@ <UNDEFINED> instruction: 0xffffffff
 8003550:	ffffffff 			@ <UNDEFINED> instruction: 0xffffffff
 8003554:	ffffffff 			@ <UNDEFINED> instruction: 0xffffffff
 8003558:	ffffffff 			@ <UNDEFINED> instruction: 0xffffffff
 800355c:	ffffffff 			@ <UNDEFINED> instruction: 0xffffffff
 8003560:	ffffffff 			@ <UNDEFINED> instruction: 0xffffffff
 8003564:	ffffffff 			@ <UNDEFINED> instruction: 0xffffffff
 8003568:	ffffffff 			@ <UNDEFINED> instruction: 0xffffffff
 800356c:	ffffffff 			@ <UNDEFINED> instruction: 0xffffffff
 8003570:	ffffffff 			@ <UNDEFINED> instruction: 0xffffffff
 8003574:	ffffffff 			@ <UNDEFINED> instruction: 0xffffffff
 8003578:	ffffffff 			@ <UNDEFINED> instruction: 0xffffffff
 800357c:	ffffffff 			@ <UNDEFINED> instruction: 0xffffffff
 8003580:	ffffffff 			@ <UNDEFINED> instruction: 0xffffffff
 8003584:	ffffffff 			@ <UNDEFINED> instruction: 0xffffffff
 8003588:	ffffffff 			@ <UNDEFINED> instruction: 0xffffffff
 800358c:	ffffffff 			@ <UNDEFINED> instruction: 0xffffffff
 8003590:	ffffffff 			@ <UNDEFINED> instruction: 0xffffffff
 8003594:	ffffffff 			@ <UNDEFINED> instruction: 0xffffffff
 8003598:	ffffffff 			@ <UNDEFINED> instruction: 0xffffffff
 800359c:	ffffffff 			@ <UNDEFINED> instruction: 0xffffffff
 80035a0:	ffffffff 			@ <UNDEFINED> instruction: 0xffffffff
 80035a4:	ffffffff 			@ <UNDEFINED> instruction: 0xffffffff
 80035a8:	ffffffff 			@ <UNDEFINED> instruction: 0xffffffff
 80035ac:	ffffffff 			@ <UNDEFINED> instruction: 0xffffffff
 80035b0:	ffffffff 			@ <UNDEFINED> instruction: 0xffffffff
 80035b4:	ffffffff 			@ <UNDEFINED> instruction: 0xffffffff
 80035b8:	ffffffff 			@ <UNDEFINED> instruction: 0xffffffff
 80035bc:	ffffffff 			@ <UNDEFINED> instruction: 0xffffffff
 80035c0:	ffffffff 			@ <UNDEFINED> instruction: 0xffffffff
 80035c4:	ffffffff 			@ <UNDEFINED> instruction: 0xffffffff
 80035c8:	ffffffff 			@ <UNDEFINED> instruction: 0xffffffff
 80035cc:	ffffffff 			@ <UNDEFINED> instruction: 0xffffffff
 80035d0:	ffffffff 			@ <UNDEFINED> instruction: 0xffffffff
 80035d4:	ffffffff 			@ <UNDEFINED> instruction: 0xffffffff
 80035d8:	ffffffff 			@ <UNDEFINED> instruction: 0xffffffff
 80035dc:	ffffffff 			@ <UNDEFINED> instruction: 0xffffffff
 80035e0:	ffffffff 			@ <UNDEFINED> instruction: 0xffffffff
 80035e4:	ffffffff 			@ <UNDEFINED> instruction: 0xffffffff
 80035e8:	ffffffff 			@ <UNDEFINED> instruction: 0xffffffff
 80035ec:	ffffffff 			@ <UNDEFINED> instruction: 0xffffffff
 80035f0:	ffffffff 			@ <UNDEFINED> instruction: 0xffffffff
 80035f4:	ffffffff 			@ <UNDEFINED> instruction: 0xffffffff
 80035f8:	ffffffff 			@ <UNDEFINED> instruction: 0xffffffff
 80035fc:	ffffffff 			@ <UNDEFINED> instruction: 0xffffffff
 8003600:	ffffffff 			@ <UNDEFINED> instruction: 0xffffffff
 8003604:	ffffffff 			@ <UNDEFINED> instruction: 0xffffffff
 8003608:	ffffffff 			@ <UNDEFINED> instruction: 0xffffffff
 800360c:	ffffffff 			@ <UNDEFINED> instruction: 0xffffffff
 8003610:	ffffffff 			@ <UNDEFINED> instruction: 0xffffffff
 8003614:	ffffffff 			@ <UNDEFINED> instruction: 0xffffffff
 8003618:	ffffffff 			@ <UNDEFINED> instruction: 0xffffffff
 800361c:	ffffffff 			@ <UNDEFINED> instruction: 0xffffffff
 8003620:	ffffffff 			@ <UNDEFINED> instruction: 0xffffffff
 8003624:	ffffffff 			@ <UNDEFINED> instruction: 0xffffffff
 8003628:	ffffffff 			@ <UNDEFINED> instruction: 0xffffffff
 800362c:	ffffffff 			@ <UNDEFINED> instruction: 0xffffffff
 8003630:	ffffffff 			@ <UNDEFINED> instruction: 0xffffffff
 8003634:	ffffffff 			@ <UNDEFINED> instruction: 0xffffffff
 8003638:	ffffffff 			@ <UNDEFINED> instruction: 0xffffffff
 800363c:	ffffffff 			@ <UNDEFINED> instruction: 0xffffffff
 8003640:	ffffffff 			@ <UNDEFINED> instruction: 0xffffffff
 8003644:	ffffffff 			@ <UNDEFINED> instruction: 0xffffffff
 8003648:	ffffffff 			@ <UNDEFINED> instruction: 0xffffffff
 800364c:	ffffffff 			@ <UNDEFINED> instruction: 0xffffffff
 8003650:	ffffffff 			@ <UNDEFINED> instruction: 0xffffffff
 8003654:	ffffffff 			@ <UNDEFINED> instruction: 0xffffffff
 8003658:	ffffffff 			@ <UNDEFINED> instruction: 0xffffffff
 800365c:	ffffffff 			@ <UNDEFINED> instruction: 0xffffffff
 8003660:	ffffffff 			@ <UNDEFINED> instruction: 0xffffffff
 8003664:	ffffffff 			@ <UNDEFINED> instruction: 0xffffffff
 8003668:	ffffffff 			@ <UNDEFINED> instruction: 0xffffffff
 800366c:	ffffffff 			@ <UNDEFINED> instruction: 0xffffffff
 8003670:	ffffffff 			@ <UNDEFINED> instruction: 0xffffffff
 8003674:	ffffffff 			@ <UNDEFINED> instruction: 0xffffffff
 8003678:	ffffffff 			@ <UNDEFINED> instruction: 0xffffffff
 800367c:	ffffffff 			@ <UNDEFINED> instruction: 0xffffffff
 8003680:	ffffffff 			@ <UNDEFINED> instruction: 0xffffffff
 8003684:	ffffffff 			@ <UNDEFINED> instruction: 0xffffffff
 8003688:	ffffffff 			@ <UNDEFINED> instruction: 0xffffffff
 800368c:	ffffffff 			@ <UNDEFINED> instruction: 0xffffffff
 8003690:	ffffffff 			@ <UNDEFINED> instruction: 0xffffffff
 8003694:	ffffffff 			@ <UNDEFINED> instruction: 0xffffffff
 8003698:	ffffffff 			@ <UNDEFINED> instruction: 0xffffffff
 800369c:	ffffffff 			@ <UNDEFINED> instruction: 0xffffffff
 80036a0:	ffffffff 			@ <UNDEFINED> instruction: 0xffffffff
 80036a4:	ffffffff 			@ <UNDEFINED> instruction: 0xffffffff
 80036a8:	ffffffff 			@ <UNDEFINED> instruction: 0xffffffff
 80036ac:	ffffffff 			@ <UNDEFINED> instruction: 0xffffffff
 80036b0:	ffffffff 			@ <UNDEFINED> instruction: 0xffffffff
 80036b4:	ffffffff 			@ <UNDEFINED> instruction: 0xffffffff
 80036b8:	ffffffff 			@ <UNDEFINED> instruction: 0xffffffff
 80036bc:	ffffffff 			@ <UNDEFINED> instruction: 0xffffffff
 80036c0:	ffffffff 			@ <UNDEFINED> instruction: 0xffffffff
 80036c4:	ffffffff 			@ <UNDEFINED> instruction: 0xffffffff
 80036c8:	ffffffff 			@ <UNDEFINED> instruction: 0xffffffff
 80036cc:	ffffffff 			@ <UNDEFINED> instruction: 0xffffffff
 80036d0:	ffffffff 			@ <UNDEFINED> instruction: 0xffffffff
 80036d4:	ffffffff 			@ <UNDEFINED> instruction: 0xffffffff
 80036d8:	ffffffff 			@ <UNDEFINED> instruction: 0xffffffff
 80036dc:	ffffffff 			@ <UNDEFINED> instruction: 0xffffffff
 80036e0:	ffffffff 			@ <UNDEFINED> instruction: 0xffffffff
 80036e4:	ffffffff 			@ <UNDEFINED> instruction: 0xffffffff
 80036e8:	ffffffff 			@ <UNDEFINED> instruction: 0xffffffff
 80036ec:	ffffffff 			@ <UNDEFINED> instruction: 0xffffffff
 80036f0:	ffffffff 			@ <UNDEFINED> instruction: 0xffffffff
 80036f4:	ffffffff 			@ <UNDEFINED> instruction: 0xffffffff
 80036f8:	ffffffff 			@ <UNDEFINED> instruction: 0xffffffff
 80036fc:	ffffffff 			@ <UNDEFINED> instruction: 0xffffffff
 8003700:	ffffffff 			@ <UNDEFINED> instruction: 0xffffffff
 8003704:	ffffffff 			@ <UNDEFINED> instruction: 0xffffffff
 8003708:	ffffffff 			@ <UNDEFINED> instruction: 0xffffffff
 800370c:	ffffffff 			@ <UNDEFINED> instruction: 0xffffffff
 8003710:	ffffffff 			@ <UNDEFINED> instruction: 0xffffffff
 8003714:	ffffffff 			@ <UNDEFINED> instruction: 0xffffffff
 8003718:	ffffffff 			@ <UNDEFINED> instruction: 0xffffffff
 800371c:	ffffffff 			@ <UNDEFINED> instruction: 0xffffffff
 8003720:	ffffffff 			@ <UNDEFINED> instruction: 0xffffffff
 8003724:	ffffffff 			@ <UNDEFINED> instruction: 0xffffffff
 8003728:	ffffffff 			@ <UNDEFINED> instruction: 0xffffffff
 800372c:	ffffffff 			@ <UNDEFINED> instruction: 0xffffffff
 8003730:	ffffffff 			@ <UNDEFINED> instruction: 0xffffffff
 8003734:	ffffffff 			@ <UNDEFINED> instruction: 0xffffffff
 8003738:	ffffffff 			@ <UNDEFINED> instruction: 0xffffffff
 800373c:	ffffffff 			@ <UNDEFINED> instruction: 0xffffffff
 8003740:	ffffffff 			@ <UNDEFINED> instruction: 0xffffffff
 8003744:	ffffffff 			@ <UNDEFINED> instruction: 0xffffffff
 8003748:	ffffffff 			@ <UNDEFINED> instruction: 0xffffffff
 800374c:	ffffffff 			@ <UNDEFINED> instruction: 0xffffffff
 8003750:	ffffffff 			@ <UNDEFINED> instruction: 0xffffffff
 8003754:	ffffffff 			@ <UNDEFINED> instruction: 0xffffffff
 8003758:	ffffffff 			@ <UNDEFINED> instruction: 0xffffffff
 800375c:	ffffffff 			@ <UNDEFINED> instruction: 0xffffffff
 8003760:	ffffffff 			@ <UNDEFINED> instruction: 0xffffffff
 8003764:	ffffffff 			@ <UNDEFINED> instruction: 0xffffffff
 8003768:	ffffffff 			@ <UNDEFINED> instruction: 0xffffffff
 800376c:	ffffffff 			@ <UNDEFINED> instruction: 0xffffffff
 8003770:	ffffffff 			@ <UNDEFINED> instruction: 0xffffffff
 8003774:	ffffffff 			@ <UNDEFINED> instruction: 0xffffffff
 8003778:	ffffffff 			@ <UNDEFINED> instruction: 0xffffffff
 800377c:	ffffffff 			@ <UNDEFINED> instruction: 0xffffffff
 8003780:	ffffffff 			@ <UNDEFINED> instruction: 0xffffffff
 8003784:	ffffffff 			@ <UNDEFINED> instruction: 0xffffffff
 8003788:	ffffffff 			@ <UNDEFINED> instruction: 0xffffffff
 800378c:	ffffffff 			@ <UNDEFINED> instruction: 0xffffffff
 8003790:	ffffffff 			@ <UNDEFINED> instruction: 0xffffffff
 8003794:	ffffffff 			@ <UNDEFINED> instruction: 0xffffffff
 8003798:	ffffffff 			@ <UNDEFINED> instruction: 0xffffffff
 800379c:	ffffffff 			@ <UNDEFINED> instruction: 0xffffffff
 80037a0:	ffffffff 			@ <UNDEFINED> instruction: 0xffffffff
 80037a4:	ffffffff 			@ <UNDEFINED> instruction: 0xffffffff
 80037a8:	ffffffff 			@ <UNDEFINED> instruction: 0xffffffff
 80037ac:	ffffffff 			@ <UNDEFINED> instruction: 0xffffffff
 80037b0:	ffffffff 			@ <UNDEFINED> instruction: 0xffffffff
 80037b4:	ffffffff 			@ <UNDEFINED> instruction: 0xffffffff
 80037b8:	ffffffff 			@ <UNDEFINED> instruction: 0xffffffff
 80037bc:	ffffffff 			@ <UNDEFINED> instruction: 0xffffffff
 80037c0:	ffffffff 			@ <UNDEFINED> instruction: 0xffffffff
 80037c4:	ffffffff 			@ <UNDEFINED> instruction: 0xffffffff
 80037c8:	ffffffff 			@ <UNDEFINED> instruction: 0xffffffff
 80037cc:	ffffffff 			@ <UNDEFINED> instruction: 0xffffffff
 80037d0:	ffffffff 			@ <UNDEFINED> instruction: 0xffffffff
 80037d4:	ffffffff 			@ <UNDEFINED> instruction: 0xffffffff
 80037d8:	ffffffff 			@ <UNDEFINED> instruction: 0xffffffff
 80037dc:	ffffffff 			@ <UNDEFINED> instruction: 0xffffffff
 80037e0:	ffffffff 			@ <UNDEFINED> instruction: 0xffffffff
 80037e4:	ffffffff 			@ <UNDEFINED> instruction: 0xffffffff
 80037e8:	ffffffff 			@ <UNDEFINED> instruction: 0xffffffff
 80037ec:	ffffffff 			@ <UNDEFINED> instruction: 0xffffffff
 80037f0:	ffffffff 			@ <UNDEFINED> instruction: 0xffffffff
 80037f4:	ffffffff 			@ <UNDEFINED> instruction: 0xffffffff
 80037f8:	ffffffff 			@ <UNDEFINED> instruction: 0xffffffff
 80037fc:	ffffffff 			@ <UNDEFINED> instruction: 0xffffffff
 8003800:	ffffffff 			@ <UNDEFINED> instruction: 0xffffffff
 8003804:	ffffffff 			@ <UNDEFINED> instruction: 0xffffffff
 8003808:	ffffffff 			@ <UNDEFINED> instruction: 0xffffffff
 800380c:	ffffffff 			@ <UNDEFINED> instruction: 0xffffffff
 8003810:	ffffffff 			@ <UNDEFINED> instruction: 0xffffffff
 8003814:	ffffffff 			@ <UNDEFINED> instruction: 0xffffffff
 8003818:	ffffffff 			@ <UNDEFINED> instruction: 0xffffffff
 800381c:	ffffffff 			@ <UNDEFINED> instruction: 0xffffffff
 8003820:	ffffffff 			@ <UNDEFINED> instruction: 0xffffffff
 8003824:	ffffffff 			@ <UNDEFINED> instruction: 0xffffffff
 8003828:	ffffffff 			@ <UNDEFINED> instruction: 0xffffffff
 800382c:	ffffffff 			@ <UNDEFINED> instruction: 0xffffffff
 8003830:	ffffffff 			@ <UNDEFINED> instruction: 0xffffffff
 8003834:	ffffffff 			@ <UNDEFINED> instruction: 0xffffffff
 8003838:	ffffffff 			@ <UNDEFINED> instruction: 0xffffffff
 800383c:	ffffffff 			@ <UNDEFINED> instruction: 0xffffffff
 8003840:	ffffffff 			@ <UNDEFINED> instruction: 0xffffffff
 8003844:	ffffffff 			@ <UNDEFINED> instruction: 0xffffffff
 8003848:	ffffffff 			@ <UNDEFINED> instruction: 0xffffffff
 800384c:	ffffffff 			@ <UNDEFINED> instruction: 0xffffffff
 8003850:	ffffffff 			@ <UNDEFINED> instruction: 0xffffffff
 8003854:	ffffffff 			@ <UNDEFINED> instruction: 0xffffffff
 8003858:	ffffffff 			@ <UNDEFINED> instruction: 0xffffffff
 800385c:	ffffffff 			@ <UNDEFINED> instruction: 0xffffffff
 8003860:	ffffffff 			@ <UNDEFINED> instruction: 0xffffffff
 8003864:	ffffffff 			@ <UNDEFINED> instruction: 0xffffffff
 8003868:	ffffffff 			@ <UNDEFINED> instruction: 0xffffffff
 800386c:	ffffffff 			@ <UNDEFINED> instruction: 0xffffffff
 8003870:	ffffffff 			@ <UNDEFINED> instruction: 0xffffffff
 8003874:	ffffffff 			@ <UNDEFINED> instruction: 0xffffffff
 8003878:	ffffffff 			@ <UNDEFINED> instruction: 0xffffffff
 800387c:	ffffffff 			@ <UNDEFINED> instruction: 0xffffffff
 8003880:	ffffffff 			@ <UNDEFINED> instruction: 0xffffffff
 8003884:	ffffffff 			@ <UNDEFINED> instruction: 0xffffffff
 8003888:	ffffffff 			@ <UNDEFINED> instruction: 0xffffffff
 800388c:	ffffffff 			@ <UNDEFINED> instruction: 0xffffffff
 8003890:	ffffffff 			@ <UNDEFINED> instruction: 0xffffffff
 8003894:	ffffffff 			@ <UNDEFINED> instruction: 0xffffffff
 8003898:	ffffffff 			@ <UNDEFINED> instruction: 0xffffffff
 800389c:	ffffffff 			@ <UNDEFINED> instruction: 0xffffffff
 80038a0:	ffffffff 			@ <UNDEFINED> instruction: 0xffffffff
 80038a4:	ffffffff 			@ <UNDEFINED> instruction: 0xffffffff
 80038a8:	ffffffff 			@ <UNDEFINED> instruction: 0xffffffff
 80038ac:	ffffffff 			@ <UNDEFINED> instruction: 0xffffffff
 80038b0:	ffffffff 			@ <UNDEFINED> instruction: 0xffffffff
 80038b4:	ffffffff 			@ <UNDEFINED> instruction: 0xffffffff
 80038b8:	ffffffff 			@ <UNDEFINED> instruction: 0xffffffff
 80038bc:	ffffffff 			@ <UNDEFINED> instruction: 0xffffffff
 80038c0:	ffffffff 			@ <UNDEFINED> instruction: 0xffffffff
 80038c4:	ffffffff 			@ <UNDEFINED> instruction: 0xffffffff
 80038c8:	ffffffff 			@ <UNDEFINED> instruction: 0xffffffff
 80038cc:	ffffffff 			@ <UNDEFINED> instruction: 0xffffffff
 80038d0:	ffffffff 			@ <UNDEFINED> instruction: 0xffffffff
 80038d4:	ffffffff 			@ <UNDEFINED> instruction: 0xffffffff
 80038d8:	ffffffff 			@ <UNDEFINED> instruction: 0xffffffff
 80038dc:	ffffffff 			@ <UNDEFINED> instruction: 0xffffffff
 80038e0:	ffffffff 			@ <UNDEFINED> instruction: 0xffffffff
 80038e4:	ffffffff 			@ <UNDEFINED> instruction: 0xffffffff
 80038e8:	ffffffff 			@ <UNDEFINED> instruction: 0xffffffff
 80038ec:	ffffffff 			@ <UNDEFINED> instruction: 0xffffffff
 80038f0:	ffffffff 			@ <UNDEFINED> instruction: 0xffffffff
 80038f4:	ffffffff 			@ <UNDEFINED> instruction: 0xffffffff
 80038f8:	ffffffff 			@ <UNDEFINED> instruction: 0xffffffff
 80038fc:	ffffffff 			@ <UNDEFINED> instruction: 0xffffffff
 8003900:	ffffffff 			@ <UNDEFINED> instruction: 0xffffffff
 8003904:	ffffffff 			@ <UNDEFINED> instruction: 0xffffffff
 8003908:	ffffffff 			@ <UNDEFINED> instruction: 0xffffffff
 800390c:	ffffffff 			@ <UNDEFINED> instruction: 0xffffffff
 8003910:	ffffffff 			@ <UNDEFINED> instruction: 0xffffffff
 8003914:	ffffffff 			@ <UNDEFINED> instruction: 0xffffffff
 8003918:	ffffffff 			@ <UNDEFINED> instruction: 0xffffffff
 800391c:	ffffffff 			@ <UNDEFINED> instruction: 0xffffffff
 8003920:	ffffffff 			@ <UNDEFINED> instruction: 0xffffffff
 8003924:	ffffffff 			@ <UNDEFINED> instruction: 0xffffffff
 8003928:	ffffffff 			@ <UNDEFINED> instruction: 0xffffffff
 800392c:	ffffffff 			@ <UNDEFINED> instruction: 0xffffffff
 8003930:	ffffffff 			@ <UNDEFINED> instruction: 0xffffffff
 8003934:	ffffffff 			@ <UNDEFINED> instruction: 0xffffffff
 8003938:	ffffffff 			@ <UNDEFINED> instruction: 0xffffffff
 800393c:	ffffffff 			@ <UNDEFINED> instruction: 0xffffffff
 8003940:	ffffffff 			@ <UNDEFINED> instruction: 0xffffffff
 8003944:	ffffffff 			@ <UNDEFINED> instruction: 0xffffffff
 8003948:	ffffffff 			@ <UNDEFINED> instruction: 0xffffffff
 800394c:	ffffffff 			@ <UNDEFINED> instruction: 0xffffffff
 8003950:	ffffffff 			@ <UNDEFINED> instruction: 0xffffffff
 8003954:	ffffffff 			@ <UNDEFINED> instruction: 0xffffffff
 8003958:	ffffffff 			@ <UNDEFINED> instruction: 0xffffffff
 800395c:	ffffffff 			@ <UNDEFINED> instruction: 0xffffffff
 8003960:	ffffffff 			@ <UNDEFINED> instruction: 0xffffffff
 8003964:	ffffffff 			@ <UNDEFINED> instruction: 0xffffffff
 8003968:	ffffffff 			@ <UNDEFINED> instruction: 0xffffffff
 800396c:	ffffffff 			@ <UNDEFINED> instruction: 0xffffffff
 8003970:	ffffffff 			@ <UNDEFINED> instruction: 0xffffffff
 8003974:	ffffffff 			@ <UNDEFINED> instruction: 0xffffffff
 8003978:	ffffffff 			@ <UNDEFINED> instruction: 0xffffffff
 800397c:	ffffffff 			@ <UNDEFINED> instruction: 0xffffffff
 8003980:	ffffffff 			@ <UNDEFINED> instruction: 0xffffffff
 8003984:	ffffffff 			@ <UNDEFINED> instruction: 0xffffffff
 8003988:	ffffffff 			@ <UNDEFINED> instruction: 0xffffffff
 800398c:	ffffffff 			@ <UNDEFINED> instruction: 0xffffffff
 8003990:	ffffffff 			@ <UNDEFINED> instruction: 0xffffffff
 8003994:	ffffffff 			@ <UNDEFINED> instruction: 0xffffffff
 8003998:	ffffffff 			@ <UNDEFINED> instruction: 0xffffffff
 800399c:	ffffffff 			@ <UNDEFINED> instruction: 0xffffffff
 80039a0:	ffffffff 			@ <UNDEFINED> instruction: 0xffffffff
 80039a4:	ffffffff 			@ <UNDEFINED> instruction: 0xffffffff
 80039a8:	ffffffff 			@ <UNDEFINED> instruction: 0xffffffff
 80039ac:	ffffffff 			@ <UNDEFINED> instruction: 0xffffffff
 80039b0:	ffffffff 			@ <UNDEFINED> instruction: 0xffffffff
 80039b4:	ffffffff 			@ <UNDEFINED> instruction: 0xffffffff
 80039b8:	ffffffff 			@ <UNDEFINED> instruction: 0xffffffff
 80039bc:	ffffffff 			@ <UNDEFINED> instruction: 0xffffffff
 80039c0:	ffffffff 			@ <UNDEFINED> instruction: 0xffffffff
 80039c4:	ffffffff 			@ <UNDEFINED> instruction: 0xffffffff
 80039c8:	ffffffff 			@ <UNDEFINED> instruction: 0xffffffff
 80039cc:	ffffffff 			@ <UNDEFINED> instruction: 0xffffffff
 80039d0:	ffffffff 			@ <UNDEFINED> instruction: 0xffffffff
 80039d4:	ffffffff 			@ <UNDEFINED> instruction: 0xffffffff
 80039d8:	ffffffff 			@ <UNDEFINED> instruction: 0xffffffff
 80039dc:	ffffffff 			@ <UNDEFINED> instruction: 0xffffffff
 80039e0:	ffffffff 			@ <UNDEFINED> instruction: 0xffffffff
 80039e4:	ffffffff 			@ <UNDEFINED> instruction: 0xffffffff
 80039e8:	ffffffff 			@ <UNDEFINED> instruction: 0xffffffff
 80039ec:	ffffffff 			@ <UNDEFINED> instruction: 0xffffffff
 80039f0:	ffffffff 			@ <UNDEFINED> instruction: 0xffffffff
 80039f4:	ffffffff 			@ <UNDEFINED> instruction: 0xffffffff
 80039f8:	ffffffff 			@ <UNDEFINED> instruction: 0xffffffff
 80039fc:	ffffffff 			@ <UNDEFINED> instruction: 0xffffffff
 8003a00:	ffffffff 			@ <UNDEFINED> instruction: 0xffffffff
 8003a04:	ffffffff 			@ <UNDEFINED> instruction: 0xffffffff
 8003a08:	ffffffff 			@ <UNDEFINED> instruction: 0xffffffff
 8003a0c:	ffffffff 			@ <UNDEFINED> instruction: 0xffffffff
 8003a10:	ffffffff 			@ <UNDEFINED> instruction: 0xffffffff
 8003a14:	ffffffff 			@ <UNDEFINED> instruction: 0xffffffff
 8003a18:	ffffffff 			@ <UNDEFINED> instruction: 0xffffffff
 8003a1c:	ffffffff 			@ <UNDEFINED> instruction: 0xffffffff
 8003a20:	ffffffff 			@ <UNDEFINED> instruction: 0xffffffff
 8003a24:	ffffffff 			@ <UNDEFINED> instruction: 0xffffffff
 8003a28:	ffffffff 			@ <UNDEFINED> instruction: 0xffffffff
 8003a2c:	ffffffff 			@ <UNDEFINED> instruction: 0xffffffff
 8003a30:	ffffffff 			@ <UNDEFINED> instruction: 0xffffffff
 8003a34:	ffffffff 			@ <UNDEFINED> instruction: 0xffffffff
 8003a38:	ffffffff 			@ <UNDEFINED> instruction: 0xffffffff
 8003a3c:	ffffffff 			@ <UNDEFINED> instruction: 0xffffffff
 8003a40:	ffffffff 			@ <UNDEFINED> instruction: 0xffffffff
 8003a44:	ffffffff 			@ <UNDEFINED> instruction: 0xffffffff
 8003a48:	ffffffff 			@ <UNDEFINED> instruction: 0xffffffff
 8003a4c:	ffffffff 			@ <UNDEFINED> instruction: 0xffffffff
 8003a50:	ffffffff 			@ <UNDEFINED> instruction: 0xffffffff
 8003a54:	ffffffff 			@ <UNDEFINED> instruction: 0xffffffff
 8003a58:	ffffffff 			@ <UNDEFINED> instruction: 0xffffffff
 8003a5c:	ffffffff 			@ <UNDEFINED> instruction: 0xffffffff
 8003a60:	ffffffff 			@ <UNDEFINED> instruction: 0xffffffff
 8003a64:	ffffffff 			@ <UNDEFINED> instruction: 0xffffffff
 8003a68:	ffffffff 			@ <UNDEFINED> instruction: 0xffffffff
 8003a6c:	ffffffff 			@ <UNDEFINED> instruction: 0xffffffff
 8003a70:	ffffffff 			@ <UNDEFINED> instruction: 0xffffffff
 8003a74:	ffffffff 			@ <UNDEFINED> instruction: 0xffffffff
 8003a78:	ffffffff 			@ <UNDEFINED> instruction: 0xffffffff
 8003a7c:	ffffffff 			@ <UNDEFINED> instruction: 0xffffffff
 8003a80:	ffffffff 			@ <UNDEFINED> instruction: 0xffffffff
 8003a84:	ffffffff 			@ <UNDEFINED> instruction: 0xffffffff
 8003a88:	ffffffff 			@ <UNDEFINED> instruction: 0xffffffff
 8003a8c:	ffffffff 			@ <UNDEFINED> instruction: 0xffffffff
 8003a90:	ffffffff 			@ <UNDEFINED> instruction: 0xffffffff
 8003a94:	ffffffff 			@ <UNDEFINED> instruction: 0xffffffff
 8003a98:	ffffffff 			@ <UNDEFINED> instruction: 0xffffffff
 8003a9c:	ffffffff 			@ <UNDEFINED> instruction: 0xffffffff
 8003aa0:	ffffffff 			@ <UNDEFINED> instruction: 0xffffffff
 8003aa4:	ffffffff 			@ <UNDEFINED> instruction: 0xffffffff
 8003aa8:	ffffffff 			@ <UNDEFINED> instruction: 0xffffffff
 8003aac:	ffffffff 			@ <UNDEFINED> instruction: 0xffffffff
 8003ab0:	ffffffff 			@ <UNDEFINED> instruction: 0xffffffff
 8003ab4:	ffffffff 			@ <UNDEFINED> instruction: 0xffffffff
 8003ab8:	ffffffff 			@ <UNDEFINED> instruction: 0xffffffff
 8003abc:	ffffffff 			@ <UNDEFINED> instruction: 0xffffffff
 8003ac0:	ffffffff 			@ <UNDEFINED> instruction: 0xffffffff
 8003ac4:	ffffffff 			@ <UNDEFINED> instruction: 0xffffffff
 8003ac8:	ffffffff 			@ <UNDEFINED> instruction: 0xffffffff
 8003acc:	ffffffff 			@ <UNDEFINED> instruction: 0xffffffff
 8003ad0:	ffffffff 			@ <UNDEFINED> instruction: 0xffffffff
 8003ad4:	ffffffff 			@ <UNDEFINED> instruction: 0xffffffff
 8003ad8:	ffffffff 			@ <UNDEFINED> instruction: 0xffffffff
 8003adc:	ffffffff 			@ <UNDEFINED> instruction: 0xffffffff
 8003ae0:	ffffffff 			@ <UNDEFINED> instruction: 0xffffffff
 8003ae4:	ffffffff 			@ <UNDEFINED> instruction: 0xffffffff
 8003ae8:	ffffffff 			@ <UNDEFINED> instruction: 0xffffffff
 8003aec:	ffffffff 			@ <UNDEFINED> instruction: 0xffffffff
 8003af0:	ffffffff 			@ <UNDEFINED> instruction: 0xffffffff
 8003af4:	ffffffff 			@ <UNDEFINED> instruction: 0xffffffff
 8003af8:	ffffffff 			@ <UNDEFINED> instruction: 0xffffffff
 8003afc:	ffffffff 			@ <UNDEFINED> instruction: 0xffffffff
 8003b00:	ffffffff 			@ <UNDEFINED> instruction: 0xffffffff
 8003b04:	ffffffff 			@ <UNDEFINED> instruction: 0xffffffff
 8003b08:	ffffffff 			@ <UNDEFINED> instruction: 0xffffffff
 8003b0c:	ffffffff 			@ <UNDEFINED> instruction: 0xffffffff
 8003b10:	ffffffff 			@ <UNDEFINED> instruction: 0xffffffff
 8003b14:	ffffffff 			@ <UNDEFINED> instruction: 0xffffffff
 8003b18:	ffffffff 			@ <UNDEFINED> instruction: 0xffffffff
 8003b1c:	ffffffff 			@ <UNDEFINED> instruction: 0xffffffff
 8003b20:	ffffffff 			@ <UNDEFINED> instruction: 0xffffffff
 8003b24:	ffffffff 			@ <UNDEFINED> instruction: 0xffffffff
 8003b28:	ffffffff 			@ <UNDEFINED> instruction: 0xffffffff
 8003b2c:	ffffffff 			@ <UNDEFINED> instruction: 0xffffffff
 8003b30:	ffffffff 			@ <UNDEFINED> instruction: 0xffffffff
 8003b34:	ffffffff 			@ <UNDEFINED> instruction: 0xffffffff
 8003b38:	ffffffff 			@ <UNDEFINED> instruction: 0xffffffff
 8003b3c:	ffffffff 			@ <UNDEFINED> instruction: 0xffffffff
 8003b40:	ffffffff 			@ <UNDEFINED> instruction: 0xffffffff
 8003b44:	ffffffff 			@ <UNDEFINED> instruction: 0xffffffff
 8003b48:	ffffffff 			@ <UNDEFINED> instruction: 0xffffffff
 8003b4c:	ffffffff 			@ <UNDEFINED> instruction: 0xffffffff
 8003b50:	ffffffff 			@ <UNDEFINED> instruction: 0xffffffff
 8003b54:	ffffffff 			@ <UNDEFINED> instruction: 0xffffffff
 8003b58:	ffffffff 			@ <UNDEFINED> instruction: 0xffffffff
 8003b5c:	ffffffff 			@ <UNDEFINED> instruction: 0xffffffff
 8003b60:	ffffffff 			@ <UNDEFINED> instruction: 0xffffffff
 8003b64:	ffffffff 			@ <UNDEFINED> instruction: 0xffffffff
 8003b68:	ffffffff 			@ <UNDEFINED> instruction: 0xffffffff
 8003b6c:	ffffffff 			@ <UNDEFINED> instruction: 0xffffffff
 8003b70:	ffffffff 			@ <UNDEFINED> instruction: 0xffffffff
 8003b74:	ffffffff 			@ <UNDEFINED> instruction: 0xffffffff
 8003b78:	ffffffff 			@ <UNDEFINED> instruction: 0xffffffff
 8003b7c:	ffffffff 			@ <UNDEFINED> instruction: 0xffffffff
 8003b80:	ffffffff 			@ <UNDEFINED> instruction: 0xffffffff
 8003b84:	ffffffff 			@ <UNDEFINED> instruction: 0xffffffff
 8003b88:	ffffffff 			@ <UNDEFINED> instruction: 0xffffffff
 8003b8c:	ffffffff 			@ <UNDEFINED> instruction: 0xffffffff
 8003b90:	ffffffff 			@ <UNDEFINED> instruction: 0xffffffff
 8003b94:	ffffffff 			@ <UNDEFINED> instruction: 0xffffffff
 8003b98:	ffffffff 			@ <UNDEFINED> instruction: 0xffffffff
 8003b9c:	ffffffff 			@ <UNDEFINED> instruction: 0xffffffff
 8003ba0:	ffffffff 			@ <UNDEFINED> instruction: 0xffffffff
 8003ba4:	ffffffff 			@ <UNDEFINED> instruction: 0xffffffff
 8003ba8:	ffffffff 			@ <UNDEFINED> instruction: 0xffffffff
 8003bac:	ffffffff 			@ <UNDEFINED> instruction: 0xffffffff
 8003bb0:	ffffffff 			@ <UNDEFINED> instruction: 0xffffffff
 8003bb4:	ffffffff 			@ <UNDEFINED> instruction: 0xffffffff
 8003bb8:	ffffffff 			@ <UNDEFINED> instruction: 0xffffffff
 8003bbc:	ffffffff 			@ <UNDEFINED> instruction: 0xffffffff
 8003bc0:	ffffffff 			@ <UNDEFINED> instruction: 0xffffffff
 8003bc4:	ffffffff 			@ <UNDEFINED> instruction: 0xffffffff
 8003bc8:	ffffffff 			@ <UNDEFINED> instruction: 0xffffffff
 8003bcc:	ffffffff 			@ <UNDEFINED> instruction: 0xffffffff
 8003bd0:	ffffffff 			@ <UNDEFINED> instruction: 0xffffffff
 8003bd4:	ffffffff 			@ <UNDEFINED> instruction: 0xffffffff
 8003bd8:	ffffffff 			@ <UNDEFINED> instruction: 0xffffffff
 8003bdc:	ffffffff 			@ <UNDEFINED> instruction: 0xffffffff
 8003be0:	ffffffff 			@ <UNDEFINED> instruction: 0xffffffff
 8003be4:	ffffffff 			@ <UNDEFINED> instruction: 0xffffffff
 8003be8:	ffffffff 			@ <UNDEFINED> instruction: 0xffffffff
 8003bec:	ffffffff 			@ <UNDEFINED> instruction: 0xffffffff
 8003bf0:	ffffffff 			@ <UNDEFINED> instruction: 0xffffffff
 8003bf4:	ffffffff 			@ <UNDEFINED> instruction: 0xffffffff
 8003bf8:	ffffffff 			@ <UNDEFINED> instruction: 0xffffffff
 8003bfc:	ffffffff 			@ <UNDEFINED> instruction: 0xffffffff
 8003c00:	ffffffff 			@ <UNDEFINED> instruction: 0xffffffff
 8003c04:	ffffffff 			@ <UNDEFINED> instruction: 0xffffffff
 8003c08:	ffffffff 			@ <UNDEFINED> instruction: 0xffffffff
 8003c0c:	ffffffff 			@ <UNDEFINED> instruction: 0xffffffff
 8003c10:	ffffffff 			@ <UNDEFINED> instruction: 0xffffffff
 8003c14:	ffffffff 			@ <UNDEFINED> instruction: 0xffffffff
 8003c18:	ffffffff 			@ <UNDEFINED> instruction: 0xffffffff
 8003c1c:	ffffffff 			@ <UNDEFINED> instruction: 0xffffffff
 8003c20:	ffffffff 			@ <UNDEFINED> instruction: 0xffffffff
 8003c24:	ffffffff 			@ <UNDEFINED> instruction: 0xffffffff
 8003c28:	ffffffff 			@ <UNDEFINED> instruction: 0xffffffff
 8003c2c:	ffffffff 			@ <UNDEFINED> instruction: 0xffffffff
 8003c30:	ffffffff 			@ <UNDEFINED> instruction: 0xffffffff
 8003c34:	ffffffff 			@ <UNDEFINED> instruction: 0xffffffff
 8003c38:	ffffffff 			@ <UNDEFINED> instruction: 0xffffffff
 8003c3c:	ffffffff 			@ <UNDEFINED> instruction: 0xffffffff
 8003c40:	ffffffff 			@ <UNDEFINED> instruction: 0xffffffff
 8003c44:	ffffffff 			@ <UNDEFINED> instruction: 0xffffffff
 8003c48:	ffffffff 			@ <UNDEFINED> instruction: 0xffffffff
 8003c4c:	ffffffff 			@ <UNDEFINED> instruction: 0xffffffff
 8003c50:	ffffffff 			@ <UNDEFINED> instruction: 0xffffffff
 8003c54:	ffffffff 			@ <UNDEFINED> instruction: 0xffffffff
 8003c58:	ffffffff 			@ <UNDEFINED> instruction: 0xffffffff
 8003c5c:	ffffffff 			@ <UNDEFINED> instruction: 0xffffffff
 8003c60:	ffffffff 			@ <UNDEFINED> instruction: 0xffffffff
 8003c64:	ffffffff 			@ <UNDEFINED> instruction: 0xffffffff
 8003c68:	ffffffff 			@ <UNDEFINED> instruction: 0xffffffff
 8003c6c:	ffffffff 			@ <UNDEFINED> instruction: 0xffffffff
 8003c70:	ffffffff 			@ <UNDEFINED> instruction: 0xffffffff
 8003c74:	ffffffff 			@ <UNDEFINED> instruction: 0xffffffff
 8003c78:	ffffffff 			@ <UNDEFINED> instruction: 0xffffffff
 8003c7c:	ffffffff 			@ <UNDEFINED> instruction: 0xffffffff
 8003c80:	ffffffff 			@ <UNDEFINED> instruction: 0xffffffff
 8003c84:	ffffffff 			@ <UNDEFINED> instruction: 0xffffffff
 8003c88:	ffffffff 			@ <UNDEFINED> instruction: 0xffffffff
 8003c8c:	ffffffff 			@ <UNDEFINED> instruction: 0xffffffff
 8003c90:	ffffffff 			@ <UNDEFINED> instruction: 0xffffffff
 8003c94:	ffffffff 			@ <UNDEFINED> instruction: 0xffffffff
 8003c98:	ffffffff 			@ <UNDEFINED> instruction: 0xffffffff
 8003c9c:	ffffffff 			@ <UNDEFINED> instruction: 0xffffffff
 8003ca0:	ffffffff 			@ <UNDEFINED> instruction: 0xffffffff
 8003ca4:	ffffffff 			@ <UNDEFINED> instruction: 0xffffffff
 8003ca8:	ffffffff 			@ <UNDEFINED> instruction: 0xffffffff
 8003cac:	ffffffff 			@ <UNDEFINED> instruction: 0xffffffff
 8003cb0:	ffffffff 			@ <UNDEFINED> instruction: 0xffffffff
 8003cb4:	ffffffff 			@ <UNDEFINED> instruction: 0xffffffff
 8003cb8:	ffffffff 			@ <UNDEFINED> instruction: 0xffffffff
 8003cbc:	ffffffff 			@ <UNDEFINED> instruction: 0xffffffff
 8003cc0:	ffffffff 			@ <UNDEFINED> instruction: 0xffffffff
 8003cc4:	ffffffff 			@ <UNDEFINED> instruction: 0xffffffff
 8003cc8:	ffffffff 			@ <UNDEFINED> instruction: 0xffffffff
 8003ccc:	ffffffff 			@ <UNDEFINED> instruction: 0xffffffff
 8003cd0:	ffffffff 			@ <UNDEFINED> instruction: 0xffffffff
 8003cd4:	ffffffff 			@ <UNDEFINED> instruction: 0xffffffff
 8003cd8:	ffffffff 			@ <UNDEFINED> instruction: 0xffffffff
 8003cdc:	ffffffff 			@ <UNDEFINED> instruction: 0xffffffff
 8003ce0:	ffffffff 			@ <UNDEFINED> instruction: 0xffffffff
 8003ce4:	ffffffff 			@ <UNDEFINED> instruction: 0xffffffff
 8003ce8:	ffffffff 			@ <UNDEFINED> instruction: 0xffffffff
 8003cec:	ffffffff 			@ <UNDEFINED> instruction: 0xffffffff
 8003cf0:	ffffffff 			@ <UNDEFINED> instruction: 0xffffffff
 8003cf4:	ffffffff 			@ <UNDEFINED> instruction: 0xffffffff
 8003cf8:	ffffffff 			@ <UNDEFINED> instruction: 0xffffffff
 8003cfc:	ffffffff 			@ <UNDEFINED> instruction: 0xffffffff
 8003d00:	ffffffff 			@ <UNDEFINED> instruction: 0xffffffff
 8003d04:	ffffffff 			@ <UNDEFINED> instruction: 0xffffffff
 8003d08:	ffffffff 			@ <UNDEFINED> instruction: 0xffffffff
 8003d0c:	ffffffff 			@ <UNDEFINED> instruction: 0xffffffff
 8003d10:	ffffffff 			@ <UNDEFINED> instruction: 0xffffffff
 8003d14:	ffffffff 			@ <UNDEFINED> instruction: 0xffffffff
 8003d18:	ffffffff 			@ <UNDEFINED> instruction: 0xffffffff
 8003d1c:	ffffffff 			@ <UNDEFINED> instruction: 0xffffffff
 8003d20:	ffffffff 			@ <UNDEFINED> instruction: 0xffffffff
 8003d24:	ffffffff 			@ <UNDEFINED> instruction: 0xffffffff
 8003d28:	ffffffff 			@ <UNDEFINED> instruction: 0xffffffff
 8003d2c:	ffffffff 			@ <UNDEFINED> instruction: 0xffffffff
 8003d30:	ffffffff 			@ <UNDEFINED> instruction: 0xffffffff
 8003d34:	ffffffff 			@ <UNDEFINED> instruction: 0xffffffff
 8003d38:	ffffffff 			@ <UNDEFINED> instruction: 0xffffffff
 8003d3c:	ffffffff 			@ <UNDEFINED> instruction: 0xffffffff
 8003d40:	ffffffff 			@ <UNDEFINED> instruction: 0xffffffff
 8003d44:	ffffffff 			@ <UNDEFINED> instruction: 0xffffffff
 8003d48:	ffffffff 			@ <UNDEFINED> instruction: 0xffffffff
 8003d4c:	ffffffff 			@ <UNDEFINED> instruction: 0xffffffff
 8003d50:	ffffffff 			@ <UNDEFINED> instruction: 0xffffffff
 8003d54:	ffffffff 			@ <UNDEFINED> instruction: 0xffffffff
 8003d58:	ffffffff 			@ <UNDEFINED> instruction: 0xffffffff
 8003d5c:	ffffffff 			@ <UNDEFINED> instruction: 0xffffffff
 8003d60:	ffffffff 			@ <UNDEFINED> instruction: 0xffffffff
 8003d64:	ffffffff 			@ <UNDEFINED> instruction: 0xffffffff
 8003d68:	ffffffff 			@ <UNDEFINED> instruction: 0xffffffff
 8003d6c:	ffffffff 			@ <UNDEFINED> instruction: 0xffffffff
 8003d70:	ffffffff 			@ <UNDEFINED> instruction: 0xffffffff
 8003d74:	ffffffff 			@ <UNDEFINED> instruction: 0xffffffff
 8003d78:	ffffffff 			@ <UNDEFINED> instruction: 0xffffffff
 8003d7c:	ffffffff 			@ <UNDEFINED> instruction: 0xffffffff
 8003d80:	ffffffff 			@ <UNDEFINED> instruction: 0xffffffff
 8003d84:	ffffffff 			@ <UNDEFINED> instruction: 0xffffffff
 8003d88:	ffffffff 			@ <UNDEFINED> instruction: 0xffffffff
 8003d8c:	ffffffff 			@ <UNDEFINED> instruction: 0xffffffff
 8003d90:	ffffffff 			@ <UNDEFINED> instruction: 0xffffffff
 8003d94:	ffffffff 			@ <UNDEFINED> instruction: 0xffffffff
 8003d98:	ffffffff 			@ <UNDEFINED> instruction: 0xffffffff
 8003d9c:	ffffffff 			@ <UNDEFINED> instruction: 0xffffffff
 8003da0:	ffffffff 			@ <UNDEFINED> instruction: 0xffffffff
 8003da4:	ffffffff 			@ <UNDEFINED> instruction: 0xffffffff
 8003da8:	ffffffff 			@ <UNDEFINED> instruction: 0xffffffff
 8003dac:	ffffffff 			@ <UNDEFINED> instruction: 0xffffffff
 8003db0:	ffffffff 			@ <UNDEFINED> instruction: 0xffffffff
 8003db4:	ffffffff 			@ <UNDEFINED> instruction: 0xffffffff
 8003db8:	ffffffff 			@ <UNDEFINED> instruction: 0xffffffff
 8003dbc:	ffffffff 			@ <UNDEFINED> instruction: 0xffffffff
 8003dc0:	ffffffff 			@ <UNDEFINED> instruction: 0xffffffff
 8003dc4:	ffffffff 			@ <UNDEFINED> instruction: 0xffffffff
 8003dc8:	ffffffff 			@ <UNDEFINED> instruction: 0xffffffff
 8003dcc:	ffffffff 			@ <UNDEFINED> instruction: 0xffffffff
 8003dd0:	ffffffff 			@ <UNDEFINED> instruction: 0xffffffff
 8003dd4:	ffffffff 			@ <UNDEFINED> instruction: 0xffffffff
 8003dd8:	ffffffff 			@ <UNDEFINED> instruction: 0xffffffff
 8003ddc:	ffffffff 			@ <UNDEFINED> instruction: 0xffffffff
 8003de0:	ffffffff 			@ <UNDEFINED> instruction: 0xffffffff
 8003de4:	ffffffff 			@ <UNDEFINED> instruction: 0xffffffff
 8003de8:	ffffffff 			@ <UNDEFINED> instruction: 0xffffffff
 8003dec:	ffffffff 			@ <UNDEFINED> instruction: 0xffffffff
 8003df0:	ffffffff 			@ <UNDEFINED> instruction: 0xffffffff
 8003df4:	ffffffff 			@ <UNDEFINED> instruction: 0xffffffff
 8003df8:	ffffffff 			@ <UNDEFINED> instruction: 0xffffffff
 8003dfc:	ffffffff 			@ <UNDEFINED> instruction: 0xffffffff
 8003e00:	ffffffff 			@ <UNDEFINED> instruction: 0xffffffff
 8003e04:	ffffffff 			@ <UNDEFINED> instruction: 0xffffffff
 8003e08:	ffffffff 			@ <UNDEFINED> instruction: 0xffffffff
 8003e0c:	ffffffff 			@ <UNDEFINED> instruction: 0xffffffff
 8003e10:	ffffffff 			@ <UNDEFINED> instruction: 0xffffffff
 8003e14:	ffffffff 			@ <UNDEFINED> instruction: 0xffffffff
 8003e18:	ffffffff 			@ <UNDEFINED> instruction: 0xffffffff
 8003e1c:	ffffffff 			@ <UNDEFINED> instruction: 0xffffffff
 8003e20:	ffffffff 			@ <UNDEFINED> instruction: 0xffffffff
 8003e24:	ffffffff 			@ <UNDEFINED> instruction: 0xffffffff
 8003e28:	ffffffff 			@ <UNDEFINED> instruction: 0xffffffff
 8003e2c:	ffffffff 			@ <UNDEFINED> instruction: 0xffffffff
 8003e30:	ffffffff 			@ <UNDEFINED> instruction: 0xffffffff
 8003e34:	ffffffff 			@ <UNDEFINED> instruction: 0xffffffff
 8003e38:	ffffffff 			@ <UNDEFINED> instruction: 0xffffffff
 8003e3c:	ffffffff 			@ <UNDEFINED> instruction: 0xffffffff
 8003e40:	ffffffff 			@ <UNDEFINED> instruction: 0xffffffff
 8003e44:	ffffffff 			@ <UNDEFINED> instruction: 0xffffffff
 8003e48:	ffffffff 			@ <UNDEFINED> instruction: 0xffffffff
 8003e4c:	ffffffff 			@ <UNDEFINED> instruction: 0xffffffff
 8003e50:	ffffffff 			@ <UNDEFINED> instruction: 0xffffffff
 8003e54:	ffffffff 			@ <UNDEFINED> instruction: 0xffffffff
 8003e58:	ffffffff 			@ <UNDEFINED> instruction: 0xffffffff
 8003e5c:	ffffffff 			@ <UNDEFINED> instruction: 0xffffffff
 8003e60:	ffffffff 			@ <UNDEFINED> instruction: 0xffffffff
 8003e64:	ffffffff 			@ <UNDEFINED> instruction: 0xffffffff
 8003e68:	ffffffff 			@ <UNDEFINED> instruction: 0xffffffff
 8003e6c:	ffffffff 			@ <UNDEFINED> instruction: 0xffffffff
 8003e70:	ffffffff 			@ <UNDEFINED> instruction: 0xffffffff
 8003e74:	ffffffff 			@ <UNDEFINED> instruction: 0xffffffff
 8003e78:	ffffffff 			@ <UNDEFINED> instruction: 0xffffffff
 8003e7c:	ffffffff 			@ <UNDEFINED> instruction: 0xffffffff
 8003e80:	ffffffff 			@ <UNDEFINED> instruction: 0xffffffff
 8003e84:	ffffffff 			@ <UNDEFINED> instruction: 0xffffffff
 8003e88:	ffffffff 			@ <UNDEFINED> instruction: 0xffffffff
 8003e8c:	ffffffff 			@ <UNDEFINED> instruction: 0xffffffff
 8003e90:	ffffffff 			@ <UNDEFINED> instruction: 0xffffffff
 8003e94:	ffffffff 			@ <UNDEFINED> instruction: 0xffffffff
 8003e98:	ffffffff 			@ <UNDEFINED> instruction: 0xffffffff
 8003e9c:	ffffffff 			@ <UNDEFINED> instruction: 0xffffffff
 8003ea0:	ffffffff 			@ <UNDEFINED> instruction: 0xffffffff
 8003ea4:	ffffffff 			@ <UNDEFINED> instruction: 0xffffffff
 8003ea8:	ffffffff 			@ <UNDEFINED> instruction: 0xffffffff
 8003eac:	ffffffff 			@ <UNDEFINED> instruction: 0xffffffff
 8003eb0:	ffffffff 			@ <UNDEFINED> instruction: 0xffffffff
 8003eb4:	ffffffff 			@ <UNDEFINED> instruction: 0xffffffff
 8003eb8:	ffffffff 			@ <UNDEFINED> instruction: 0xffffffff
 8003ebc:	ffffffff 			@ <UNDEFINED> instruction: 0xffffffff
 8003ec0:	ffffffff 			@ <UNDEFINED> instruction: 0xffffffff
 8003ec4:	ffffffff 			@ <UNDEFINED> instruction: 0xffffffff
 8003ec8:	ffffffff 			@ <UNDEFINED> instruction: 0xffffffff
 8003ecc:	ffffffff 			@ <UNDEFINED> instruction: 0xffffffff
 8003ed0:	ffffffff 			@ <UNDEFINED> instruction: 0xffffffff
 8003ed4:	ffffffff 			@ <UNDEFINED> instruction: 0xffffffff
 8003ed8:	ffffffff 			@ <UNDEFINED> instruction: 0xffffffff
 8003edc:	ffffffff 			@ <UNDEFINED> instruction: 0xffffffff
 8003ee0:	ffffffff 			@ <UNDEFINED> instruction: 0xffffffff
 8003ee4:	ffffffff 			@ <UNDEFINED> instruction: 0xffffffff
 8003ee8:	ffffffff 			@ <UNDEFINED> instruction: 0xffffffff
 8003eec:	ffffffff 			@ <UNDEFINED> instruction: 0xffffffff
 8003ef0:	ffffffff 			@ <UNDEFINED> instruction: 0xffffffff
 8003ef4:	ffffffff 			@ <UNDEFINED> instruction: 0xffffffff
 8003ef8:	ffffffff 			@ <UNDEFINED> instruction: 0xffffffff
 8003efc:	ffffffff 			@ <UNDEFINED> instruction: 0xffffffff
 8003f00:	ffffffff 			@ <UNDEFINED> instruction: 0xffffffff
 8003f04:	ffffffff 			@ <UNDEFINED> instruction: 0xffffffff
 8003f08:	ffffffff 			@ <UNDEFINED> instruction: 0xffffffff
 8003f0c:	ffffffff 			@ <UNDEFINED> instruction: 0xffffffff
 8003f10:	ffffffff 			@ <UNDEFINED> instruction: 0xffffffff
 8003f14:	ffffffff 			@ <UNDEFINED> instruction: 0xffffffff
 8003f18:	ffffffff 			@ <UNDEFINED> instruction: 0xffffffff
 8003f1c:	ffffffff 			@ <UNDEFINED> instruction: 0xffffffff
 8003f20:	ffffffff 			@ <UNDEFINED> instruction: 0xffffffff
 8003f24:	ffffffff 			@ <UNDEFINED> instruction: 0xffffffff
 8003f28:	ffffffff 			@ <UNDEFINED> instruction: 0xffffffff
 8003f2c:	ffffffff 			@ <UNDEFINED> instruction: 0xffffffff
 8003f30:	ffffffff 			@ <UNDEFINED> instruction: 0xffffffff
 8003f34:	ffffffff 			@ <UNDEFINED> instruction: 0xffffffff
 8003f38:	ffffffff 			@ <UNDEFINED> instruction: 0xffffffff
 8003f3c:	ffffffff 			@ <UNDEFINED> instruction: 0xffffffff
 8003f40:	ffffffff 			@ <UNDEFINED> instruction: 0xffffffff
 8003f44:	ffffffff 			@ <UNDEFINED> instruction: 0xffffffff
 8003f48:	ffffffff 			@ <UNDEFINED> instruction: 0xffffffff
 8003f4c:	ffffffff 			@ <UNDEFINED> instruction: 0xffffffff
 8003f50:	ffffffff 			@ <UNDEFINED> instruction: 0xffffffff
 8003f54:	ffffffff 			@ <UNDEFINED> instruction: 0xffffffff
 8003f58:	ffffffff 			@ <UNDEFINED> instruction: 0xffffffff
 8003f5c:	ffffffff 			@ <UNDEFINED> instruction: 0xffffffff
 8003f60:	ffffffff 			@ <UNDEFINED> instruction: 0xffffffff
 8003f64:	ffffffff 			@ <UNDEFINED> instruction: 0xffffffff
 8003f68:	ffffffff 			@ <UNDEFINED> instruction: 0xffffffff
 8003f6c:	ffffffff 			@ <UNDEFINED> instruction: 0xffffffff
 8003f70:	ffffffff 			@ <UNDEFINED> instruction: 0xffffffff
 8003f74:	ffffffff 			@ <UNDEFINED> instruction: 0xffffffff
 8003f78:	ffffffff 			@ <UNDEFINED> instruction: 0xffffffff
 8003f7c:	ffffffff 			@ <UNDEFINED> instruction: 0xffffffff
 8003f80:	ffffffff 			@ <UNDEFINED> instruction: 0xffffffff
 8003f84:	ffffffff 			@ <UNDEFINED> instruction: 0xffffffff
 8003f88:	ffffffff 			@ <UNDEFINED> instruction: 0xffffffff
 8003f8c:	ffffffff 			@ <UNDEFINED> instruction: 0xffffffff
 8003f90:	ffffffff 			@ <UNDEFINED> instruction: 0xffffffff
 8003f94:	ffffffff 			@ <UNDEFINED> instruction: 0xffffffff
 8003f98:	ffffffff 			@ <UNDEFINED> instruction: 0xffffffff
 8003f9c:	ffffffff 			@ <UNDEFINED> instruction: 0xffffffff
 8003fa0:	ffffffff 			@ <UNDEFINED> instruction: 0xffffffff
 8003fa4:	ffffffff 			@ <UNDEFINED> instruction: 0xffffffff
 8003fa8:	ffffffff 			@ <UNDEFINED> instruction: 0xffffffff
 8003fac:	ffffffff 			@ <UNDEFINED> instruction: 0xffffffff
 8003fb0:	ffffffff 			@ <UNDEFINED> instruction: 0xffffffff
 8003fb4:	ffffffff 			@ <UNDEFINED> instruction: 0xffffffff
 8003fb8:	ffffffff 			@ <UNDEFINED> instruction: 0xffffffff
 8003fbc:	ffffffff 			@ <UNDEFINED> instruction: 0xffffffff
 8003fc0:	ffffffff 			@ <UNDEFINED> instruction: 0xffffffff
 8003fc4:	ffffffff 			@ <UNDEFINED> instruction: 0xffffffff
 8003fc8:	ffffffff 			@ <UNDEFINED> instruction: 0xffffffff
 8003fcc:	ffffffff 			@ <UNDEFINED> instruction: 0xffffffff
 8003fd0:	ffffffff 			@ <UNDEFINED> instruction: 0xffffffff
 8003fd4:	ffffffff 			@ <UNDEFINED> instruction: 0xffffffff
 8003fd8:	ffffffff 			@ <UNDEFINED> instruction: 0xffffffff
 8003fdc:	ffffffff 			@ <UNDEFINED> instruction: 0xffffffff
 8003fe0:	ffffffff 			@ <UNDEFINED> instruction: 0xffffffff
 8003fe4:	ffffffff 			@ <UNDEFINED> instruction: 0xffffffff
 8003fe8:	ffffffff 			@ <UNDEFINED> instruction: 0xffffffff
 8003fec:	ffffffff 			@ <UNDEFINED> instruction: 0xffffffff
 8003ff0:	ffffffff 			@ <UNDEFINED> instruction: 0xffffffff
 8003ff4:	ffffffff 			@ <UNDEFINED> instruction: 0xffffffff
 8003ff8:	ffffffff 			@ <UNDEFINED> instruction: 0xffffffff
 8003ffc:	ffffffff 			@ <UNDEFINED> instruction: 0xffffffff
 8004000:	ffffffff 			@ <UNDEFINED> instruction: 0xffffffff
 8004004:	ffffffff 			@ <UNDEFINED> instruction: 0xffffffff
 8004008:	ffffffff 			@ <UNDEFINED> instruction: 0xffffffff
 800400c:	ffffffff 			@ <UNDEFINED> instruction: 0xffffffff
 8004010:	ffffffff 			@ <UNDEFINED> instruction: 0xffffffff
 8004014:	ffffffff 			@ <UNDEFINED> instruction: 0xffffffff
 8004018:	ffffffff 			@ <UNDEFINED> instruction: 0xffffffff
 800401c:	ffffffff 			@ <UNDEFINED> instruction: 0xffffffff
 8004020:	ffffffff 			@ <UNDEFINED> instruction: 0xffffffff
 8004024:	ffffffff 			@ <UNDEFINED> instruction: 0xffffffff
 8004028:	ffffffff 			@ <UNDEFINED> instruction: 0xffffffff
 800402c:	ffffffff 			@ <UNDEFINED> instruction: 0xffffffff
 8004030:	ffffffff 			@ <UNDEFINED> instruction: 0xffffffff
 8004034:	ffffffff 			@ <UNDEFINED> instruction: 0xffffffff
 8004038:	ffffffff 			@ <UNDEFINED> instruction: 0xffffffff
 800403c:	ffffffff 			@ <UNDEFINED> instruction: 0xffffffff
 8004040:	ffffffff 			@ <UNDEFINED> instruction: 0xffffffff
 8004044:	ffffffff 			@ <UNDEFINED> instruction: 0xffffffff
 8004048:	ffffffff 			@ <UNDEFINED> instruction: 0xffffffff
 800404c:	ffffffff 			@ <UNDEFINED> instruction: 0xffffffff
 8004050:	ffffffff 			@ <UNDEFINED> instruction: 0xffffffff
 8004054:	ffffffff 			@ <UNDEFINED> instruction: 0xffffffff
 8004058:	ffffffff 			@ <UNDEFINED> instruction: 0xffffffff
 800405c:	ffffffff 			@ <UNDEFINED> instruction: 0xffffffff
 8004060:	ffffffff 			@ <UNDEFINED> instruction: 0xffffffff
 8004064:	ffffffff 			@ <UNDEFINED> instruction: 0xffffffff
 8004068:	ffffffff 			@ <UNDEFINED> instruction: 0xffffffff
 800406c:	ffffffff 			@ <UNDEFINED> instruction: 0xffffffff
 8004070:	ffffffff 			@ <UNDEFINED> instruction: 0xffffffff
 8004074:	ffffffff 			@ <UNDEFINED> instruction: 0xffffffff
 8004078:	ffffffff 			@ <UNDEFINED> instruction: 0xffffffff
 800407c:	ffffffff 			@ <UNDEFINED> instruction: 0xffffffff
 8004080:	ffffffff 			@ <UNDEFINED> instruction: 0xffffffff
 8004084:	ffffffff 			@ <UNDEFINED> instruction: 0xffffffff
 8004088:	ffffffff 			@ <UNDEFINED> instruction: 0xffffffff
 800408c:	ffffffff 			@ <UNDEFINED> instruction: 0xffffffff
 8004090:	ffffffff 			@ <UNDEFINED> instruction: 0xffffffff
 8004094:	ffffffff 			@ <UNDEFINED> instruction: 0xffffffff
 8004098:	ffffffff 			@ <UNDEFINED> instruction: 0xffffffff
 800409c:	ffffffff 			@ <UNDEFINED> instruction: 0xffffffff
 80040a0:	ffffffff 			@ <UNDEFINED> instruction: 0xffffffff
 80040a4:	ffffffff 			@ <UNDEFINED> instruction: 0xffffffff
 80040a8:	ffffffff 			@ <UNDEFINED> instruction: 0xffffffff
 80040ac:	ffffffff 			@ <UNDEFINED> instruction: 0xffffffff
 80040b0:	ffffffff 			@ <UNDEFINED> instruction: 0xffffffff
 80040b4:	ffffffff 			@ <UNDEFINED> instruction: 0xffffffff
 80040b8:	ffffffff 			@ <UNDEFINED> instruction: 0xffffffff
 80040bc:	ffffffff 			@ <UNDEFINED> instruction: 0xffffffff
 80040c0:	ffffffff 			@ <UNDEFINED> instruction: 0xffffffff
 80040c4:	ffffffff 			@ <UNDEFINED> instruction: 0xffffffff
 80040c8:	ffffffff 			@ <UNDEFINED> instruction: 0xffffffff
 80040cc:	ffffffff 			@ <UNDEFINED> instruction: 0xffffffff
 80040d0:	ffffffff 			@ <UNDEFINED> instruction: 0xffffffff
 80040d4:	ffffffff 			@ <UNDEFINED> instruction: 0xffffffff
 80040d8:	ffffffff 			@ <UNDEFINED> instruction: 0xffffffff
 80040dc:	ffffffff 			@ <UNDEFINED> instruction: 0xffffffff
 80040e0:	ffffffff 			@ <UNDEFINED> instruction: 0xffffffff
 80040e4:	ffffffff 			@ <UNDEFINED> instruction: 0xffffffff
 80040e8:	ffffffff 			@ <UNDEFINED> instruction: 0xffffffff
 80040ec:	ffffffff 			@ <UNDEFINED> instruction: 0xffffffff
 80040f0:	ffffffff 			@ <UNDEFINED> instruction: 0xffffffff
 80040f4:	ffffffff 			@ <UNDEFINED> instruction: 0xffffffff
 80040f8:	ffffffff 			@ <UNDEFINED> instruction: 0xffffffff
 80040fc:	ffffffff 			@ <UNDEFINED> instruction: 0xffffffff
 8004100:	ffffffff 			@ <UNDEFINED> instruction: 0xffffffff
 8004104:	ffffffff 			@ <UNDEFINED> instruction: 0xffffffff
 8004108:	ffffffff 			@ <UNDEFINED> instruction: 0xffffffff
 800410c:	ffffffff 			@ <UNDEFINED> instruction: 0xffffffff
 8004110:	ffffffff 			@ <UNDEFINED> instruction: 0xffffffff
 8004114:	ffffffff 			@ <UNDEFINED> instruction: 0xffffffff
 8004118:	ffffffff 			@ <UNDEFINED> instruction: 0xffffffff
 800411c:	ffffffff 			@ <UNDEFINED> instruction: 0xffffffff
 8004120:	ffffffff 			@ <UNDEFINED> instruction: 0xffffffff
 8004124:	ffffffff 			@ <UNDEFINED> instruction: 0xffffffff
 8004128:	ffffffff 			@ <UNDEFINED> instruction: 0xffffffff
 800412c:	ffffffff 			@ <UNDEFINED> instruction: 0xffffffff
 8004130:	ffffffff 			@ <UNDEFINED> instruction: 0xffffffff
 8004134:	ffffffff 			@ <UNDEFINED> instruction: 0xffffffff
 8004138:	ffffffff 			@ <UNDEFINED> instruction: 0xffffffff
 800413c:	ffffffff 			@ <UNDEFINED> instruction: 0xffffffff
 8004140:	ffffffff 			@ <UNDEFINED> instruction: 0xffffffff
 8004144:	ffffffff 			@ <UNDEFINED> instruction: 0xffffffff
 8004148:	ffffffff 			@ <UNDEFINED> instruction: 0xffffffff
 800414c:	ffffffff 			@ <UNDEFINED> instruction: 0xffffffff
 8004150:	ffffffff 			@ <UNDEFINED> instruction: 0xffffffff
 8004154:	ffffffff 			@ <UNDEFINED> instruction: 0xffffffff
 8004158:	ffffffff 			@ <UNDEFINED> instruction: 0xffffffff
 800415c:	ffffffff 			@ <UNDEFINED> instruction: 0xffffffff
 8004160:	ffffffff 			@ <UNDEFINED> instruction: 0xffffffff
 8004164:	ffffffff 			@ <UNDEFINED> instruction: 0xffffffff
 8004168:	ffffffff 			@ <UNDEFINED> instruction: 0xffffffff
 800416c:	ffffffff 			@ <UNDEFINED> instruction: 0xffffffff
 8004170:	ffffffff 			@ <UNDEFINED> instruction: 0xffffffff
 8004174:	ffffffff 			@ <UNDEFINED> instruction: 0xffffffff
 8004178:	ffffffff 			@ <UNDEFINED> instruction: 0xffffffff
 800417c:	ffffffff 			@ <UNDEFINED> instruction: 0xffffffff
 8004180:	ffffffff 			@ <UNDEFINED> instruction: 0xffffffff
 8004184:	ffffffff 			@ <UNDEFINED> instruction: 0xffffffff
 8004188:	ffffffff 			@ <UNDEFINED> instruction: 0xffffffff
 800418c:	ffffffff 			@ <UNDEFINED> instruction: 0xffffffff
 8004190:	ffffffff 			@ <UNDEFINED> instruction: 0xffffffff
 8004194:	ffffffff 			@ <UNDEFINED> instruction: 0xffffffff
 8004198:	ffffffff 			@ <UNDEFINED> instruction: 0xffffffff
 800419c:	ffffffff 			@ <UNDEFINED> instruction: 0xffffffff
 80041a0:	ffffffff 			@ <UNDEFINED> instruction: 0xffffffff
 80041a4:	ffffffff 			@ <UNDEFINED> instruction: 0xffffffff
 80041a8:	ffffffff 			@ <UNDEFINED> instruction: 0xffffffff
 80041ac:	ffffffff 			@ <UNDEFINED> instruction: 0xffffffff
 80041b0:	ffffffff 			@ <UNDEFINED> instruction: 0xffffffff
 80041b4:	ffffffff 			@ <UNDEFINED> instruction: 0xffffffff
 80041b8:	ffffffff 			@ <UNDEFINED> instruction: 0xffffffff
 80041bc:	ffffffff 			@ <UNDEFINED> instruction: 0xffffffff
 80041c0:	ffffffff 			@ <UNDEFINED> instruction: 0xffffffff
 80041c4:	ffffffff 			@ <UNDEFINED> instruction: 0xffffffff
 80041c8:	ffffffff 			@ <UNDEFINED> instruction: 0xffffffff
 80041cc:	ffffffff 			@ <UNDEFINED> instruction: 0xffffffff
 80041d0:	ffffffff 			@ <UNDEFINED> instruction: 0xffffffff
 80041d4:	ffffffff 			@ <UNDEFINED> instruction: 0xffffffff
 80041d8:	ffffffff 			@ <UNDEFINED> instruction: 0xffffffff
 80041dc:	ffffffff 			@ <UNDEFINED> instruction: 0xffffffff
 80041e0:	ffffffff 			@ <UNDEFINED> instruction: 0xffffffff
 80041e4:	ffffffff 			@ <UNDEFINED> instruction: 0xffffffff
 80041e8:	ffffffff 			@ <UNDEFINED> instruction: 0xffffffff
 80041ec:	ffffffff 			@ <UNDEFINED> instruction: 0xffffffff
 80041f0:	ffffffff 			@ <UNDEFINED> instruction: 0xffffffff
 80041f4:	ffffffff 			@ <UNDEFINED> instruction: 0xffffffff
 80041f8:	ffffffff 			@ <UNDEFINED> instruction: 0xffffffff
 80041fc:	ffffffff 			@ <UNDEFINED> instruction: 0xffffffff
 8004200:	ffffffff 			@ <UNDEFINED> instruction: 0xffffffff
 8004204:	ffffffff 			@ <UNDEFINED> instruction: 0xffffffff
 8004208:	ffffffff 			@ <UNDEFINED> instruction: 0xffffffff
 800420c:	ffffffff 			@ <UNDEFINED> instruction: 0xffffffff
 8004210:	ffffffff 			@ <UNDEFINED> instruction: 0xffffffff
 8004214:	ffffffff 			@ <UNDEFINED> instruction: 0xffffffff
 8004218:	ffffffff 			@ <UNDEFINED> instruction: 0xffffffff
 800421c:	ffffffff 			@ <UNDEFINED> instruction: 0xffffffff
 8004220:	ffffffff 			@ <UNDEFINED> instruction: 0xffffffff
 8004224:	ffffffff 			@ <UNDEFINED> instruction: 0xffffffff
 8004228:	ffffffff 			@ <UNDEFINED> instruction: 0xffffffff
 800422c:	ffffffff 			@ <UNDEFINED> instruction: 0xffffffff
 8004230:	ffffffff 			@ <UNDEFINED> instruction: 0xffffffff
 8004234:	ffffffff 			@ <UNDEFINED> instruction: 0xffffffff
 8004238:	ffffffff 			@ <UNDEFINED> instruction: 0xffffffff
 800423c:	ffffffff 			@ <UNDEFINED> instruction: 0xffffffff
 8004240:	ffffffff 			@ <UNDEFINED> instruction: 0xffffffff
 8004244:	ffffffff 			@ <UNDEFINED> instruction: 0xffffffff
 8004248:	ffffffff 			@ <UNDEFINED> instruction: 0xffffffff
 800424c:	ffffffff 			@ <UNDEFINED> instruction: 0xffffffff
 8004250:	ffffffff 			@ <UNDEFINED> instruction: 0xffffffff
 8004254:	ffffffff 			@ <UNDEFINED> instruction: 0xffffffff
