
bootloader.elf:     file format elf32-littlearm


Disassembly of section .text:

08000000 <vector_table>:
 8000000:	20018000 	andcs	r8, r1, r0
 8000004:	080001c1 	stmdaeq	r0, {r0, r6, r7, r8}
 8000008:	080001bf 	stmdaeq	r0, {r0, r1, r2, r3, r4, r5, r7, r8}
 800000c:	080001bd 	stmdaeq	r0, {r0, r2, r3, r4, r5, r7, r8}
 8000010:	080001bd 	stmdaeq	r0, {r0, r2, r3, r4, r5, r7, r8}
 8000014:	080001bd 	stmdaeq	r0, {r0, r2, r3, r4, r5, r7, r8}
 8000018:	080001bd 	stmdaeq	r0, {r0, r2, r3, r4, r5, r7, r8}
	...
 800002c:	080001bf 	stmdaeq	r0, {r0, r1, r2, r3, r4, r5, r7, r8}
 8000030:	080001bf 	stmdaeq	r0, {r0, r1, r2, r3, r4, r5, r7, r8}
 8000034:	00000000 	andeq	r0, r0, r0
 8000038:	080001bf 	stmdaeq	r0, {r0, r1, r2, r3, r4, r5, r7, r8}
 800003c:	080001bf 	stmdaeq	r0, {r0, r1, r2, r3, r4, r5, r7, r8}
 8000040:	080001bd 	stmdaeq	r0, {r0, r2, r3, r4, r5, r7, r8}
 8000044:	080001bd 	stmdaeq	r0, {r0, r2, r3, r4, r5, r7, r8}
 8000048:	080001bd 	stmdaeq	r0, {r0, r2, r3, r4, r5, r7, r8}
 800004c:	080001bd 	stmdaeq	r0, {r0, r2, r3, r4, r5, r7, r8}
 8000050:	080001bd 	stmdaeq	r0, {r0, r2, r3, r4, r5, r7, r8}
 8000054:	080001bd 	stmdaeq	r0, {r0, r2, r3, r4, r5, r7, r8}
 8000058:	080001bd 	stmdaeq	r0, {r0, r2, r3, r4, r5, r7, r8}
 800005c:	080001bd 	stmdaeq	r0, {r0, r2, r3, r4, r5, r7, r8}
 8000060:	080001bd 	stmdaeq	r0, {r0, r2, r3, r4, r5, r7, r8}
 8000064:	080001bd 	stmdaeq	r0, {r0, r2, r3, r4, r5, r7, r8}
 8000068:	080001bd 	stmdaeq	r0, {r0, r2, r3, r4, r5, r7, r8}
 800006c:	080001bd 	stmdaeq	r0, {r0, r2, r3, r4, r5, r7, r8}
 8000070:	080001bd 	stmdaeq	r0, {r0, r2, r3, r4, r5, r7, r8}
 8000074:	080001bd 	stmdaeq	r0, {r0, r2, r3, r4, r5, r7, r8}
 8000078:	080001bd 	stmdaeq	r0, {r0, r2, r3, r4, r5, r7, r8}
 800007c:	080001bd 	stmdaeq	r0, {r0, r2, r3, r4, r5, r7, r8}
 8000080:	080001bd 	stmdaeq	r0, {r0, r2, r3, r4, r5, r7, r8}
 8000084:	080001bd 	stmdaeq	r0, {r0, r2, r3, r4, r5, r7, r8}
 8000088:	080001bd 	stmdaeq	r0, {r0, r2, r3, r4, r5, r7, r8}
 800008c:	080001bd 	stmdaeq	r0, {r0, r2, r3, r4, r5, r7, r8}
 8000090:	080001bd 	stmdaeq	r0, {r0, r2, r3, r4, r5, r7, r8}
 8000094:	080001bd 	stmdaeq	r0, {r0, r2, r3, r4, r5, r7, r8}
 8000098:	080001bd 	stmdaeq	r0, {r0, r2, r3, r4, r5, r7, r8}
 800009c:	080001bd 	stmdaeq	r0, {r0, r2, r3, r4, r5, r7, r8}
 80000a0:	080001bd 	stmdaeq	r0, {r0, r2, r3, r4, r5, r7, r8}
 80000a4:	080001bd 	stmdaeq	r0, {r0, r2, r3, r4, r5, r7, r8}
 80000a8:	080001bd 	stmdaeq	r0, {r0, r2, r3, r4, r5, r7, r8}
 80000ac:	080001bd 	stmdaeq	r0, {r0, r2, r3, r4, r5, r7, r8}
 80000b0:	080001bd 	stmdaeq	r0, {r0, r2, r3, r4, r5, r7, r8}
 80000b4:	080001bd 	stmdaeq	r0, {r0, r2, r3, r4, r5, r7, r8}
 80000b8:	080001bd 	stmdaeq	r0, {r0, r2, r3, r4, r5, r7, r8}
 80000bc:	080001bd 	stmdaeq	r0, {r0, r2, r3, r4, r5, r7, r8}
 80000c0:	080001bd 	stmdaeq	r0, {r0, r2, r3, r4, r5, r7, r8}
 80000c4:	080001bd 	stmdaeq	r0, {r0, r2, r3, r4, r5, r7, r8}
 80000c8:	080001bd 	stmdaeq	r0, {r0, r2, r3, r4, r5, r7, r8}
 80000cc:	080001bd 	stmdaeq	r0, {r0, r2, r3, r4, r5, r7, r8}
 80000d0:	080001bd 	stmdaeq	r0, {r0, r2, r3, r4, r5, r7, r8}
 80000d4:	080001bd 	stmdaeq	r0, {r0, r2, r3, r4, r5, r7, r8}
 80000d8:	080001bd 	stmdaeq	r0, {r0, r2, r3, r4, r5, r7, r8}
 80000dc:	080001bd 	stmdaeq	r0, {r0, r2, r3, r4, r5, r7, r8}
 80000e0:	080001bd 	stmdaeq	r0, {r0, r2, r3, r4, r5, r7, r8}
 80000e4:	080001bd 	stmdaeq	r0, {r0, r2, r3, r4, r5, r7, r8}
 80000e8:	080001bd 	stmdaeq	r0, {r0, r2, r3, r4, r5, r7, r8}
 80000ec:	080001bd 	stmdaeq	r0, {r0, r2, r3, r4, r5, r7, r8}
 80000f0:	080001bd 	stmdaeq	r0, {r0, r2, r3, r4, r5, r7, r8}
 80000f4:	080001bd 	stmdaeq	r0, {r0, r2, r3, r4, r5, r7, r8}
 80000f8:	080001bd 	stmdaeq	r0, {r0, r2, r3, r4, r5, r7, r8}
 80000fc:	080001bd 	stmdaeq	r0, {r0, r2, r3, r4, r5, r7, r8}
 8000100:	080001bd 	stmdaeq	r0, {r0, r2, r3, r4, r5, r7, r8}
 8000104:	080001bd 	stmdaeq	r0, {r0, r2, r3, r4, r5, r7, r8}
 8000108:	080001bd 	stmdaeq	r0, {r0, r2, r3, r4, r5, r7, r8}
 800010c:	080001bd 	stmdaeq	r0, {r0, r2, r3, r4, r5, r7, r8}
 8000110:	080001bd 	stmdaeq	r0, {r0, r2, r3, r4, r5, r7, r8}
 8000114:	080001bd 	stmdaeq	r0, {r0, r2, r3, r4, r5, r7, r8}
 8000118:	080001bd 	stmdaeq	r0, {r0, r2, r3, r4, r5, r7, r8}
 800011c:	080001bd 	stmdaeq	r0, {r0, r2, r3, r4, r5, r7, r8}
 8000120:	080001bd 	stmdaeq	r0, {r0, r2, r3, r4, r5, r7, r8}
 8000124:	080001bd 	stmdaeq	r0, {r0, r2, r3, r4, r5, r7, r8}
 8000128:	080001bd 	stmdaeq	r0, {r0, r2, r3, r4, r5, r7, r8}
 800012c:	080001bd 	stmdaeq	r0, {r0, r2, r3, r4, r5, r7, r8}
 8000130:	080001bd 	stmdaeq	r0, {r0, r2, r3, r4, r5, r7, r8}
 8000134:	080001bd 	stmdaeq	r0, {r0, r2, r3, r4, r5, r7, r8}
 8000138:	080001bd 	stmdaeq	r0, {r0, r2, r3, r4, r5, r7, r8}
 800013c:	080001bd 	stmdaeq	r0, {r0, r2, r3, r4, r5, r7, r8}
 8000140:	080001bd 	stmdaeq	r0, {r0, r2, r3, r4, r5, r7, r8}
 8000144:	080001bd 	stmdaeq	r0, {r0, r2, r3, r4, r5, r7, r8}
 8000148:	080001bd 	stmdaeq	r0, {r0, r2, r3, r4, r5, r7, r8}
 800014c:	080001bd 	stmdaeq	r0, {r0, r2, r3, r4, r5, r7, r8}
 8000150:	080001bd 	stmdaeq	r0, {r0, r2, r3, r4, r5, r7, r8}
 8000154:	080001bd 	stmdaeq	r0, {r0, r2, r3, r4, r5, r7, r8}
 8000158:	080001bd 	stmdaeq	r0, {r0, r2, r3, r4, r5, r7, r8}
 800015c:	080001bd 	stmdaeq	r0, {r0, r2, r3, r4, r5, r7, r8}
 8000160:	080001bd 	stmdaeq	r0, {r0, r2, r3, r4, r5, r7, r8}
 8000164:	080001bd 	stmdaeq	r0, {r0, r2, r3, r4, r5, r7, r8}
 8000168:	080001bd 	stmdaeq	r0, {r0, r2, r3, r4, r5, r7, r8}
 800016c:	080001bd 	stmdaeq	r0, {r0, r2, r3, r4, r5, r7, r8}
 8000170:	080001bd 	stmdaeq	r0, {r0, r2, r3, r4, r5, r7, r8}
 8000174:	080001bd 	stmdaeq	r0, {r0, r2, r3, r4, r5, r7, r8}
 8000178:	080001bd 	stmdaeq	r0, {r0, r2, r3, r4, r5, r7, r8}
 800017c:	080001bd 	stmdaeq	r0, {r0, r2, r3, r4, r5, r7, r8}
 8000180:	080001bd 	stmdaeq	r0, {r0, r2, r3, r4, r5, r7, r8}
 8000184:	080001bd 	stmdaeq	r0, {r0, r2, r3, r4, r5, r7, r8}
 8000188:	080001bd 	stmdaeq	r0, {r0, r2, r3, r4, r5, r7, r8}
 800018c:	080001bd 	stmdaeq	r0, {r0, r2, r3, r4, r5, r7, r8}
 8000190:	080001bd 	stmdaeq	r0, {r0, r2, r3, r4, r5, r7, r8}
 8000194:	080001bd 	stmdaeq	r0, {r0, r2, r3, r4, r5, r7, r8}
 8000198:	080001bd 	stmdaeq	r0, {r0, r2, r3, r4, r5, r7, r8}
 800019c:	080001bd 	stmdaeq	r0, {r0, r2, r3, r4, r5, r7, r8}
 80001a0:	080001bd 	stmdaeq	r0, {r0, r2, r3, r4, r5, r7, r8}
 80001a4:	080001bd 	stmdaeq	r0, {r0, r2, r3, r4, r5, r7, r8}
 80001a8:	080001bd 	stmdaeq	r0, {r0, r2, r3, r4, r5, r7, r8}

080001ac <main>:
 80001ac:	b508      	push	{r3, lr}
 80001ae:	4b02      	ldr	r3, [pc, #8]	@ (80001b8 <main+0xc>)
 80001b0:	685b      	ldr	r3, [r3, #4]
 80001b2:	4798      	blx	r3
 80001b4:	2000      	movs	r0, #0
 80001b6:	bd08      	pop	{r3, pc}
 80001b8:	08008000 	stmdaeq	r0, {pc}

080001bc <blocking_handler>:
 80001bc:	e7fe      	b.n	80001bc <blocking_handler>

080001be <null_handler>:
 80001be:	4770      	bx	lr

080001c0 <reset_handler>:
 80001c0:	b538      	push	{r3, r4, r5, lr}
 80001c2:	4a1d      	ldr	r2, [pc, #116]	@ (8000238 <reset_handler+0x78>)
 80001c4:	4b1d      	ldr	r3, [pc, #116]	@ (800023c <reset_handler+0x7c>)
 80001c6:	491e      	ldr	r1, [pc, #120]	@ (8000240 <reset_handler+0x80>)
 80001c8:	428b      	cmp	r3, r1
 80001ca:	d320      	bcc.n	800020e <reset_handler+0x4e>
 80001cc:	4a1d      	ldr	r2, [pc, #116]	@ (8000244 <reset_handler+0x84>)
 80001ce:	2100      	movs	r1, #0
 80001d0:	4293      	cmp	r3, r2
 80001d2:	d321      	bcc.n	8000218 <reset_handler+0x58>
 80001d4:	f04f 23e0 	mov.w	r3, #3758153728	@ 0xe000e000
 80001d8:	4c1b      	ldr	r4, [pc, #108]	@ (8000248 <reset_handler+0x88>)
 80001da:	f8d3 2d14 	ldr.w	r2, [r3, #3348]	@ 0xd14
 80001de:	4d1b      	ldr	r5, [pc, #108]	@ (800024c <reset_handler+0x8c>)
 80001e0:	f442 7200 	orr.w	r2, r2, #512	@ 0x200
 80001e4:	f8c3 2d14 	str.w	r2, [r3, #3348]	@ 0xd14
 80001e8:	f8d3 2d88 	ldr.w	r2, [r3, #3464]	@ 0xd88
 80001ec:	f442 0270 	orr.w	r2, r2, #15728640	@ 0xf00000
 80001f0:	f8c3 2d88 	str.w	r2, [r3, #3464]	@ 0xd88
 80001f4:	42ac      	cmp	r4, r5
 80001f6:	d312      	bcc.n	800021e <reset_handler+0x5e>
 80001f8:	4c15      	ldr	r4, [pc, #84]	@ (8000250 <reset_handler+0x90>)
 80001fa:	4d16      	ldr	r5, [pc, #88]	@ (8000254 <reset_handler+0x94>)
 80001fc:	42ac      	cmp	r4, r5
 80001fe:	d312      	bcc.n	8000226 <reset_handler+0x66>
 8000200:	f7ff ffd4 	bl	80001ac <main>
 8000204:	4c14      	ldr	r4, [pc, #80]	@ (8000258 <reset_handler+0x98>)
 8000206:	4d15      	ldr	r5, [pc, #84]	@ (800025c <reset_handler+0x9c>)
 8000208:	42ac      	cmp	r4, r5
 800020a:	d310      	bcc.n	800022e <reset_handler+0x6e>
 800020c:	bd38      	pop	{r3, r4, r5, pc}
 800020e:	f852 0b04 	ldr.w	r0, [r2], #4
 8000212:	f843 0b04 	str.w	r0, [r3], #4
 8000216:	e7d7      	b.n	80001c8 <reset_handler+0x8>
 8000218:	f843 1b04 	str.w	r1, [r3], #4
 800021c:	e7d8      	b.n	80001d0 <reset_handler+0x10>
 800021e:	f854 3b04 	ldr.w	r3, [r4], #4
 8000222:	4798      	blx	r3
 8000224:	e7e6      	b.n	80001f4 <reset_handler+0x34>
 8000226:	f854 3b04 	ldr.w	r3, [r4], #4
 800022a:	4798      	blx	r3
 800022c:	e7e6      	b.n	80001fc <reset_handler+0x3c>
 800022e:	f854 3b04 	ldr.w	r3, [r4], #4
 8000232:	4798      	blx	r3
 8000234:	e7e8      	b.n	8000208 <reset_handler+0x48>
 8000236:	bf00      	nop
 8000238:	08000260 	stmdaeq	r0, {r5, r6, r9}
 800023c:	20000000 	andcs	r0, r0, r0
 8000240:	20000000 	andcs	r0, r0, r0
 8000244:	20000000 	andcs	r0, r0, r0
 8000248:	08000260 	stmdaeq	r0, {r5, r6, r9}
 800024c:	08000260 	stmdaeq	r0, {r5, r6, r9}
 8000250:	08000260 	stmdaeq	r0, {r5, r6, r9}
 8000254:	08000260 	stmdaeq	r0, {r5, r6, r9}
 8000258:	08000260 	stmdaeq	r0, {r5, r6, r9}
 800025c:	08000260 	stmdaeq	r0, {r5, r6, r9}
